(imatplotlib.font_manager
FontManager
p1
(dp2
S'afm_lookup_cache'
p3
(dp4
sS'ttflist'
p5
(lp6
ccopy_reg
_reconstructor
p7
(cmatplotlib.font_manager
FontEntry
p8
c__builtin__
object
p9
NtRp10
(dp11
S'style'
p12
S'normal'
p13
sS'name'
p14
S'cmtt10'
p15
sS'weight'
p16
I400
sS'stretch'
p17
g13
sS'variant'
p18
g13
sS'fname'
p19
S'C:\\PROGRA~1\\QGISBR~1\\apps\\Python27\\lib\\site-packages\\matplotlib-1.3.1-py2.7-win-amd64.egg\\matplotlib\\mpl-data\\fonts\\ttf\\cmtt10.ttf'
p20
sS'size'
p21
S'scalable'
p22
sbag7
(g8
g9
NtRp23
(dp24
g12
g13
sg14
S'cmb10'
p25
sg16
I400
sg17
g13
sg18
g13
sg19
S'C:\\PROGRA~1\\QGISBR~1\\apps\\Python27\\lib\\site-packages\\matplotlib-1.3.1-py2.7-win-amd64.egg\\matplotlib\\mpl-data\\fonts\\ttf\\cmb10.ttf'
p26
sg21
g22
sbag7
(g8
g9
NtRp27
(dp28
g12
g13
sg14
S'STIXNonUnicode'
p29
sg16
I700
sg17
g13
sg18
g13
sg19
S'C:\\PROGRA~1\\QGISBR~1\\apps\\Python27\\lib\\site-packages\\matplotlib-1.3.1-py2.7-win-amd64.egg\\matplotlib\\mpl-data\\fonts\\ttf\\STIXNonUniBol.ttf'
p30
sg21
g22
sbag7
(g8
g9
NtRp31
(dp32
g12
S'oblique'
p33
sg14
S'Bitstream Vera Sans Mono'
p34
sg16
I400
sg17
g13
sg18
g13
sg19
S'C:\\PROGRA~1\\QGISBR~1\\apps\\Python27\\lib\\site-packages\\matplotlib-1.3.1-py2.7-win-amd64.egg\\matplotlib\\mpl-data\\fonts\\ttf\\VeraMoIt.ttf'
p35
sg21
g22
sbag7
(g8
g9
NtRp36
(dp37
g12
g13
sg14
S'Bitstream Vera Serif'
p38
sg16
I700
sg17
g13
sg18
g13
sg19
S'C:\\PROGRA~1\\QGISBR~1\\apps\\Python27\\lib\\site-packages\\matplotlib-1.3.1-py2.7-win-amd64.egg\\matplotlib\\mpl-data\\fonts\\ttf\\VeraSeBd.ttf'
p39
sg21
g22
sbag7
(g8
g9
NtRp40
(dp41
g12
g33
sg14
S'Bitstream Vera Sans'
p42
sg16
I400
sg17
g13
sg18
g13
sg19
S'C:\\PROGRA~1\\QGISBR~1\\apps\\Python27\\lib\\site-packages\\matplotlib-1.3.1-py2.7-win-amd64.egg\\matplotlib\\mpl-data\\fonts\\ttf\\VeraIt.ttf'
p43
sg21
g22
sbag7
(g8
g9
NtRp44
(dp45
g12
g13
sg14
S'STIXSizeFiveSym'
p46
sg16
I400
sg17
g13
sg18
g13
sg19
S'C:\\PROGRA~1\\QGISBR~1\\apps\\Python27\\lib\\site-packages\\matplotlib-1.3.1-py2.7-win-amd64.egg\\matplotlib\\mpl-data\\fonts\\ttf\\STIXSizFiveSymReg.ttf'
p47
sg21
g22
sbag7
(g8
g9
NtRp48
(dp49
g12
S'italic'
p50
sg14
S'STIXGeneral'
p51
sg16
I700
sg17
g13
sg18
g13
sg19
S'C:\\PROGRA~1\\QGISBR~1\\apps\\Python27\\lib\\site-packages\\matplotlib-1.3.1-py2.7-win-amd64.egg\\matplotlib\\mpl-data\\fonts\\ttf\\STIXGeneralBolIta.ttf'
p52
sg21
g22
sbag7
(g8
g9
NtRp53
(dp54
g12
g13
sg14
S'STIXSizeOneSym'
p55
sg16
I400
sg17
g13
sg18
g13
sg19
S'C:\\PROGRA~1\\QGISBR~1\\apps\\Python27\\lib\\site-packages\\matplotlib-1.3.1-py2.7-win-amd64.egg\\matplotlib\\mpl-data\\fonts\\ttf\\STIXSizOneSymReg.ttf'
p56
sg21
g22
sbag7
(g8
g9
NtRp57
(dp58
g12
g13
sg14
S'STIXSizeThreeSym'
p59
sg16
I700
sg17
g13
sg18
g13
sg19
S'C:\\PROGRA~1\\QGISBR~1\\apps\\Python27\\lib\\site-packages\\matplotlib-1.3.1-py2.7-win-amd64.egg\\matplotlib\\mpl-data\\fonts\\ttf\\STIXSizThreeSymBol.ttf'
p60
sg21
g22
sbag7
(g8
g9
NtRp61
(dp62
g12
g13
sg14
S'STIXSizeOneSym'
p63
sg16
I700
sg17
g13
sg18
g13
sg19
S'C:\\PROGRA~1\\QGISBR~1\\apps\\Python27\\lib\\site-packages\\matplotlib-1.3.1-py2.7-win-amd64.egg\\matplotlib\\mpl-data\\fonts\\ttf\\STIXSizOneSymBol.ttf'
p64
sg21
g22
sbag7
(g8
g9
NtRp65
(dp66
g12
g13
sg14
S'cmss10'
p67
sg16
I400
sg17
g13
sg18
g13
sg19
S'C:\\PROGRA~1\\QGISBR~1\\apps\\Python27\\lib\\site-packages\\matplotlib-1.3.1-py2.7-win-amd64.egg\\matplotlib\\mpl-data\\fonts\\ttf\\cmss10.ttf'
p68
sg21
g22
sbag7
(g8
g9
NtRp69
(dp70
g12
g13
sg14
S'Bitstream Vera Sans Mono'
p71
sg16
I400
sg17
g13
sg18
g13
sg19
S'C:\\PROGRA~1\\QGISBR~1\\apps\\Python27\\lib\\site-packages\\matplotlib-1.3.1-py2.7-win-amd64.egg\\matplotlib\\mpl-data\\fonts\\ttf\\VeraMono.ttf'
p72
sg21
g22
sbag7
(g8
g9
NtRp73
(dp74
g12
g13
sg14
S'STIXSizeTwoSym'
p75
sg16
I700
sg17
g13
sg18
g13
sg19
S'C:\\PROGRA~1\\QGISBR~1\\apps\\Python27\\lib\\site-packages\\matplotlib-1.3.1-py2.7-win-amd64.egg\\matplotlib\\mpl-data\\fonts\\ttf\\STIXSizTwoSymBol.ttf'
p76
sg21
g22
sbag7
(g8
g9
NtRp77
(dp78
g12
g13
sg14
S'Bitstream Vera Sans Mono'
p79
sg16
I700
sg17
g13
sg18
g13
sg19
S'C:\\PROGRA~1\\QGISBR~1\\apps\\Python27\\lib\\site-packages\\matplotlib-1.3.1-py2.7-win-amd64.egg\\matplotlib\\mpl-data\\fonts\\ttf\\VeraMoBd.ttf'
p80
sg21
g22
sbag7
(g8
g9
NtRp81
(dp82
g12
g13
sg14
S'Bitstream Vera Sans'
p83
sg16
I700
sg17
g13
sg18
g13
sg19
S'C:\\PROGRA~1\\QGISBR~1\\apps\\Python27\\lib\\site-packages\\matplotlib-1.3.1-py2.7-win-amd64.egg\\matplotlib\\mpl-data\\fonts\\ttf\\VeraBd.ttf'
p84
sg21
g22
sbag7
(g8
g9
NtRp85
(dp86
g12
g13
sg14
S'STIXSizeFourSym'
p87
sg16
I700
sg17
g13
sg18
g13
sg19
S'C:\\PROGRA~1\\QGISBR~1\\apps\\Python27\\lib\\site-packages\\matplotlib-1.3.1-py2.7-win-amd64.egg\\matplotlib\\mpl-data\\fonts\\ttf\\STIXSizFourSymBol.ttf'
p88
sg21
g22
sbag7
(g8
g9
NtRp89
(dp90
g12
g13
sg14
S'cmsy10'
p91
sg16
I400
sg17
g13
sg18
g13
sg19
S'C:\\PROGRA~1\\QGISBR~1\\apps\\Python27\\lib\\site-packages\\matplotlib-1.3.1-py2.7-win-amd64.egg\\matplotlib\\mpl-data\\fonts\\ttf\\cmsy10.ttf'
p92
sg21
g22
sbag7
(g8
g9
NtRp93
(dp94
g12
g13
sg14
S'STIXGeneral'
p95
sg16
I400
sg17
g13
sg18
g13
sg19
S'C:\\PROGRA~1\\QGISBR~1\\apps\\Python27\\lib\\site-packages\\matplotlib-1.3.1-py2.7-win-amd64.egg\\matplotlib\\mpl-data\\fonts\\ttf\\STIXGeneral.ttf'
p96
sg21
g22
sbag7
(g8
g9
NtRp97
(dp98
g12
g13
sg14
S'STIXSizeFourSym'
p99
sg16
I400
sg17
g13
sg18
g13
sg19
S'C:\\PROGRA~1\\QGISBR~1\\apps\\Python27\\lib\\site-packages\\matplotlib-1.3.1-py2.7-win-amd64.egg\\matplotlib\\mpl-data\\fonts\\ttf\\STIXSizFourSymReg.ttf'
p100
sg21
g22
sbag7
(g8
g9
NtRp101
(dp102
g12
g33
sg14
S'Bitstream Vera Sans'
p103
sg16
I700
sg17
g13
sg18
g13
sg19
S'C:\\PROGRA~1\\QGISBR~1\\apps\\Python27\\lib\\site-packages\\matplotlib-1.3.1-py2.7-win-amd64.egg\\matplotlib\\mpl-data\\fonts\\ttf\\VeraBI.ttf'
p104
sg21
g22
sbag7
(g8
g9
NtRp105
(dp106
g12
g50
sg14
S'STIXNonUnicode'
p107
sg16
I400
sg17
g13
sg18
g13
sg19
S'C:\\PROGRA~1\\QGISBR~1\\apps\\Python27\\lib\\site-packages\\matplotlib-1.3.1-py2.7-win-amd64.egg\\matplotlib\\mpl-data\\fonts\\ttf\\STIXNonUniIta.ttf'
p108
sg21
g22
sbag7
(g8
g9
NtRp109
(dp110
g12
g50
sg14
S'STIXNonUnicode'
p111
sg16
I700
sg17
g13
sg18
g13
sg19
S'C:\\PROGRA~1\\QGISBR~1\\apps\\Python27\\lib\\site-packages\\matplotlib-1.3.1-py2.7-win-amd64.egg\\matplotlib\\mpl-data\\fonts\\ttf\\STIXNonUniBolIta.ttf'
p112
sg21
g22
sbag7
(g8
g9
NtRp113
(dp114
g12
g13
sg14
S'cmex10'
p115
sg16
I400
sg17
g13
sg18
g13
sg19
S'C:\\PROGRA~1\\QGISBR~1\\apps\\Python27\\lib\\site-packages\\matplotlib-1.3.1-py2.7-win-amd64.egg\\matplotlib\\mpl-data\\fonts\\ttf\\cmex10.ttf'
p116
sg21
g22
sbag7
(g8
g9
NtRp117
(dp118
g12
g50
sg14
S'STIXGeneral'
p119
sg16
I400
sg17
g13
sg18
g13
sg19
S'C:\\PROGRA~1\\QGISBR~1\\apps\\Python27\\lib\\site-packages\\matplotlib-1.3.1-py2.7-win-amd64.egg\\matplotlib\\mpl-data\\fonts\\ttf\\STIXGeneralItalic.ttf'
p120
sg21
g22
sbag7
(g8
g9
NtRp121
(dp122
g12
g13
sg14
S'cmmi10'
p123
sg16
I400
sg17
g13
sg18
g13
sg19
S'C:\\PROGRA~1\\QGISBR~1\\apps\\Python27\\lib\\site-packages\\matplotlib-1.3.1-py2.7-win-amd64.egg\\matplotlib\\mpl-data\\fonts\\ttf\\cmmi10.ttf'
p124
sg21
g22
sbag7
(g8
g9
NtRp125
(dp126
g12
g13
sg14
S'STIXSizeThreeSym'
p127
sg16
I400
sg17
g13
sg18
g13
sg19
S'C:\\PROGRA~1\\QGISBR~1\\apps\\Python27\\lib\\site-packages\\matplotlib-1.3.1-py2.7-win-amd64.egg\\matplotlib\\mpl-data\\fonts\\ttf\\STIXSizThreeSymReg.ttf'
p128
sg21
g22
sbag7
(g8
g9
NtRp129
(dp130
g12
g13
sg14
S'cmr10'
p131
sg16
I400
sg17
g13
sg18
g13
sg19
S'C:\\PROGRA~1\\QGISBR~1\\apps\\Python27\\lib\\site-packages\\matplotlib-1.3.1-py2.7-win-amd64.egg\\matplotlib\\mpl-data\\fonts\\ttf\\cmr10.ttf'
p132
sg21
g22
sbag7
(g8
g9
NtRp133
(dp134
g12
g33
sg14
S'Bitstream Vera Sans Mono'
p135
sg16
I700
sg17
g13
sg18
g13
sg19
S'C:\\PROGRA~1\\QGISBR~1\\apps\\Python27\\lib\\site-packages\\matplotlib-1.3.1-py2.7-win-amd64.egg\\matplotlib\\mpl-data\\fonts\\ttf\\VeraMoBI.ttf'
p136
sg21
g22
sbag7
(g8
g9
NtRp137
(dp138
g12
g13
sg14
S'STIXNonUnicode'
p139
sg16
I400
sg17
g13
sg18
g13
sg19
S'C:\\PROGRA~1\\QGISBR~1\\apps\\Python27\\lib\\site-packages\\matplotlib-1.3.1-py2.7-win-amd64.egg\\matplotlib\\mpl-data\\fonts\\ttf\\STIXNonUni.ttf'
p140
sg21
g22
sbag7
(g8
g9
NtRp141
(dp142
g12
g13
sg14
S'Bitstream Vera Sans'
p143
sg16
I400
sg17
g13
sg18
g13
sg19
S'C:\\PROGRA~1\\QGISBR~1\\apps\\Python27\\lib\\site-packages\\matplotlib-1.3.1-py2.7-win-amd64.egg\\matplotlib\\mpl-data\\fonts\\ttf\\Vera.ttf'
p144
sg21
g22
sbag7
(g8
g9
NtRp145
(dp146
g12
g13
sg14
S'STIXGeneral'
p147
sg16
I700
sg17
g13
sg18
g13
sg19
S'C:\\PROGRA~1\\QGISBR~1\\apps\\Python27\\lib\\site-packages\\matplotlib-1.3.1-py2.7-win-amd64.egg\\matplotlib\\mpl-data\\fonts\\ttf\\STIXGeneralBol.ttf'
p148
sg21
g22
sbag7
(g8
g9
NtRp149
(dp150
g12
g13
sg14
S'STIXSizeTwoSym'
p151
sg16
I400
sg17
g13
sg18
g13
sg19
S'C:\\PROGRA~1\\QGISBR~1\\apps\\Python27\\lib\\site-packages\\matplotlib-1.3.1-py2.7-win-amd64.egg\\matplotlib\\mpl-data\\fonts\\ttf\\STIXSizTwoSymReg.ttf'
p152
sg21
g22
sbag7
(g8
g9
NtRp153
(dp154
g12
g13
sg14
S'Bitstream Vera Serif'
p155
sg16
I400
sg17
g13
sg18
g13
sg19
S'C:\\PROGRA~1\\QGISBR~1\\apps\\Python27\\lib\\site-packages\\matplotlib-1.3.1-py2.7-win-amd64.egg\\matplotlib\\mpl-data\\fonts\\ttf\\VeraSe.ttf'
p156
sg21
g22
sbag7
(g8
g9
NtRp157
(dp158
g12
g13
sg14
S'Courier New'
p159
sg16
I400
sg17
g13
sg18
g13
sg19
S'C:\\Windows\\Fonts\\cour.ttf'
p160
sg21
g22
sbag7
(g8
g9
NtRp161
(dp162
g12
g50
sg14
S'Browallia New'
p163
sg16
I400
sg17
g13
sg18
g13
sg19
S'c:\\windows\\fonts\\browai.ttf'
p164
sg21
g22
sbag7
(g8
g9
NtRp165
(dp166
g12
g13
sg14
S'Cambria'
p167
sg16
I700
sg17
g13
sg18
g13
sg19
S'c:\\windows\\fonts\\cambriab.ttf'
p168
sg21
g22
sbag7
(g8
g9
NtRp169
(dp170
g12
g50
sg14
S'Verdana'
p171
sg16
I700
sg17
g13
sg18
g13
sg19
S'C:\\Windows\\Fonts\\verdanaz.ttf'
p172
sg21
g22
sbag7
(g8
g9
NtRp173
(dp174
g12
g50
sg14
S'Palatino Linotype'
p175
sg16
I700
sg17
g13
sg18
g13
sg19
S'C:\\Windows\\Fonts\\palabi.ttf'
p176
sg21
g22
sbag7
(g8
g9
NtRp177
(dp178
g12
g50
sg14
S'JasmineUPC'
p179
sg16
I400
sg17
g13
sg18
g13
sg19
S'c:\\windows\\fonts\\upcji.ttf'
p180
sg21
g22
sbag7
(g8
g9
NtRp181
(dp182
g12
g13
sg14
S'Microsoft Tai Le'
p183
sg16
I700
sg17
g13
sg18
g13
sg19
S'C:\\Windows\\Fonts\\taileb.ttf'
p184
sg21
g22
sbag7
(g8
g9
NtRp185
(dp186
g12
g13
sg14
S'Trebuchet MS'
p187
sg16
I700
sg17
g13
sg18
g13
sg19
S'c:\\windows\\fonts\\trebucbd.ttf'
p188
sg21
g22
sbag7
(g8
g9
NtRp189
(dp190
g12
g13
sg14
S'Tahoma'
p191
sg16
I700
sg17
g13
sg18
g13
sg19
S'C:\\Windows\\Fonts\\tahomabd.ttf'
p192
sg21
g22
sbag7
(g8
g9
NtRp193
(dp194
g12
g13
sg14
S'CatholicSchoolGirls Intl BB'
p195
sg16
I400
sg17
g13
sg18
g13
sg19
S'C:\\Windows\\Fonts\\CSchoolGirlsIntl.ttf'
p196
sg21
g22
sbag7
(g8
g9
NtRp197
(dp198
g12
g13
sg14
S'Century Gothic'
p199
sg16
I400
sg17
g13
sg18
g13
sg19
S'C:\\Windows\\Fonts\\GOTHIC.TTF'
p200
sg21
g22
sbag7
(g8
g9
NtRp201
(dp202
g12
g13
sg14
S'BrowalliaUPC'
p203
sg16
I400
sg17
g13
sg18
g13
sg19
S'c:\\windows\\fonts\\browau.ttf'
p204
sg21
g22
sbag7
(g8
g9
NtRp205
(dp206
g12
g13
sg14
S'ESSTIXSeven'
p207
sg16
I400
sg17
g13
sg18
g13
sg19
S'c:\\windows\\fonts\\esstix7_.ttf'
p208
sg21
g22
sbag7
(g8
g9
NtRp209
(dp210
g12
g13
sg14
S'Byington'
p211
sg16
I400
sg17
g13
sg18
g13
sg19
S'C:\\Windows\\Fonts\\byington.ttf'
p212
sg21
g22
sbag7
(g8
g9
NtRp213
(dp214
g12
g13
sg14
S'KaiTi'
p215
sg16
I400
sg17
g13
sg18
g13
sg19
S'c:\\windows\\fonts\\simkai.ttf'
p216
sg21
g22
sbag7
(g8
g9
NtRp217
(dp218
g12
g13
sg14
S'EucrosiaUPC'
p219
sg16
I400
sg17
g13
sg18
g13
sg19
S'c:\\windows\\fonts\\upcel.ttf'
p220
sg21
g22
sbag7
(g8
g9
NtRp221
(dp222
g12
g13
sg14
S'Kokila'
p223
sg16
I400
sg17
g13
sg18
g13
sg19
S'C:\\Windows\\Fonts\\kokila.ttf'
p224
sg21
g22
sbag7
(g8
g9
NtRp225
(dp226
g12
g50
sg14
S'Trebuchet MS'
p227
sg16
I700
sg17
g13
sg18
g13
sg19
S'c:\\windows\\fonts\\trebucbi.ttf'
p228
sg21
g22
sbag7
(g8
g9
NtRp229
(dp230
g12
g13
sg14
S'Monotype Corsiva'
p231
sg16
I400
sg17
g13
sg18
g13
sg19
S'c:\\windows\\fonts\\mtcorsva.ttf'
p232
sg21
g22
sbag7
(g8
g9
NtRp233
(dp234
g12
g50
sg14
S'Berylium'
p235
sg16
I700
sg17
g13
sg18
g13
sg19
S'c:\\windows\\fonts\\berylibi.ttf'
p236
sg21
g22
sbag7
(g8
g9
NtRp237
(dp238
g12
g50
sg14
S'Segoe UI'
p239
sg16
I700
sg17
g13
sg18
g13
sg19
S'c:\\windows\\fonts\\segoeuiz.ttf'
p240
sg21
g22
sbag7
(g8
g9
NtRp241
(dp242
g12
g13
sg14
S'sshlinedraw'
p243
sg16
I400
sg17
g13
sg18
g13
sg19
S'C:\\Windows\\Fonts\\Sshlined.ttf'
p244
sg21
g22
sbag7
(g8
g9
NtRp245
(dp246
g12
g13
sg14
S'Euclid Extra'
p247
sg16
I400
sg17
g13
sg18
g13
sg19
S'C:\\Windows\\Fonts\\euextra.ttf'
p248
sg21
g22
sbag7
(g8
g9
NtRp249
(dp250
g12
g13
sg14
S'Wickenden Cafe NDP'
p251
sg16
I700
sg17
g13
sg18
g13
sg19
S'C:\\Windows\\Fonts\\WICKCNB_.TTF'
p252
sg21
g22
sbag7
(g8
g9
NtRp253
(dp254
g12
g50
sg14
S'BrowalliaUPC'
p255
sg16
I700
sg17
g13
sg18
g13
sg19
S'c:\\windows\\fonts\\browauz.ttf'
p256
sg21
g22
sbag7
(g8
g9
NtRp257
(dp258
g12
g13
sg14
S'Malgun Gothic'
p259
sg16
I700
sg17
g13
sg18
g13
sg19
S'C:\\Windows\\Fonts\\malgunbd.ttf'
p260
sg21
g22
sbag7
(g8
g9
NtRp261
(dp262
g12
g13
sg14
S'DokChampa'
p263
sg16
I400
sg17
g13
sg18
g13
sg19
S'C:\\Windows\\Fonts\\dokchamp.ttf'
p264
sg21
g22
sbag7
(g8
g9
NtRp265
(dp266
g12
g13
sg14
S'MT Extra'
p267
sg16
I400
sg17
g13
sg18
g13
sg19
S'c:\\windows\\fonts\\mtextra.ttf'
p268
sg21
g22
sbag7
(g8
g9
NtRp269
(dp270
g12
g50
sg14
S'Arial'
p271
sg16
I400
sg17
g13
sg18
g13
sg19
S'c:\\windows\\fonts\\ariali.ttf'
p272
sg21
g22
sbag7
(g8
g9
NtRp273
(dp274
g12
g50
sg14
S'Catriel'
p275
sg16
I400
sg17
g13
sg18
g13
sg19
S'c:\\windows\\fonts\\catriel italic.ttf'
p276
sg21
g22
sbag7
(g8
g9
NtRp277
(dp278
g12
g13
sg14
S'Khmer UI'
p279
sg16
I700
sg17
g13
sg18
g13
sg19
S'c:\\windows\\fonts\\khmeruib.ttf'
p280
sg21
g22
sbag7
(g8
g9
NtRp281
(dp282
g12
g13
sg14
S'MT Extra Tiger'
p283
sg16
I400
sg17
g13
sg18
g13
sg19
S'C:\\Windows\\Fonts\\Mt Extra Tiger.ttf'
p284
sg21
g22
sbag7
(g8
g9
NtRp285
(dp286
g12
g33
sg14
S'DejaVu Sans'
p287
sg16
I700
sg17
S'condensed'
p288
sg18
g13
sg19
S'C:\\Windows\\Fonts\\DejaVuSansCondensed-BoldOblique.ttf'
p289
sg21
g22
sbag7
(g8
g9
NtRp290
(dp291
g12
g50
sg14
S'Gentium Book Basic'
p292
sg16
I700
sg17
g13
sg18
g13
sg19
S'c:\\windows\\fonts\\genbkbasbi.ttf'
p293
sg21
g22
sbag7
(g8
g9
NtRp294
(dp295
g12
g13
sg14
S'Simplified Arabic'
p296
sg16
I400
sg17
g13
sg18
g13
sg19
S'c:\\windows\\fonts\\simpo.ttf'
p297
sg21
g22
sbag7
(g8
g9
NtRp298
(dp299
g12
g13
sg14
S'Arabic Typesetting'
p300
sg16
I400
sg17
g13
sg18
g13
sg19
S'c:\\windows\\fonts\\arabtype.ttf'
p301
sg21
g22
sbag7
(g8
g9
NtRp302
(dp303
g12
g13
sg14
S'Kartika'
p304
sg16
I700
sg17
g13
sg18
g13
sg19
S'C:\\Windows\\Fonts\\kartikab.ttf'
p305
sg21
g22
sbag7
(g8
g9
NtRp306
(dp307
g12
g50
sg14
S'Aparajita'
p308
sg16
I400
sg17
g13
sg18
g13
sg19
S'c:\\windows\\fonts\\aparaji.ttf'
p309
sg21
g22
sbag7
(g8
g9
NtRp310
(dp311
g12
g50
sg14
S'Teen'
p312
sg16
I400
sg17
g13
sg18
g13
sg19
S'C:\\Windows\\Fonts\\TEENITAL.TTF'
p313
sg21
g22
sbag7
(g8
g9
NtRp314
(dp315
g12
g13
sg14
S'Khmer UI'
p316
sg16
I400
sg17
g13
sg18
g13
sg19
S'c:\\windows\\fonts\\khmerui.ttf'
p317
sg21
g22
sbag7
(g8
g9
NtRp318
(dp319
g12
g13
sg14
S'Segoe UI'
p320
sg16
I400
sg17
g13
sg18
g13
sg19
S'c:\\windows\\fonts\\seguisb.ttf'
p321
sg21
g22
sbag7
(g8
g9
NtRp322
(dp323
g12
g13
sg14
S'ESSTIXTen'
p324
sg16
I400
sg17
g13
sg18
g13
sg19
S'c:\\windows\\fonts\\esstix10.ttf'
p325
sg21
g22
sbag7
(g8
g9
NtRp326
(dp327
g12
g13
sg14
S'Biondi'
p328
sg16
I400
sg17
g13
sg18
g13
sg19
S'C:\\Windows\\Fonts\\biondi.ttf'
p329
sg21
g22
sbag7
(g8
g9
NtRp330
(dp331
g12
g13
sg14
S'ESSTIXFive'
p332
sg16
I400
sg17
g13
sg18
g13
sg19
S'C:\\Windows\\Fonts\\ESSTIX5_.TTF'
p333
sg21
g22
sbag7
(g8
g9
NtRp334
(dp335
g12
g13
sg14
S'Catriel'
p336
sg16
I700
sg17
g13
sg18
g13
sg19
S'C:\\Windows\\Fonts\\catriel bold.ttf'
p337
sg21
g22
sbag7
(g8
g9
NtRp338
(dp339
g12
g50
sg14
S'Euclid Symbol'
p340
sg16
I400
sg17
g13
sg18
g13
sg19
S'c:\\windows\\fonts\\eucsymi.ttf'
p341
sg21
g22
sbag7
(g8
g9
NtRp342
(dp343
g12
g13
sg14
S'Calibri'
p344
sg16
I200
sg17
g13
sg18
g13
sg19
S'C:\\Windows\\Fonts\\calibril.ttf'
p345
sg21
g22
sbag7
(g8
g9
NtRp346
(dp347
g12
g13
sg14
S'Cordia New'
p348
sg16
I700
sg17
g13
sg18
g13
sg19
S'C:\\Windows\\Fonts\\cordiab.ttf'
p349
sg21
g22
sbag7
(g8
g9
NtRp350
(dp351
g12
g13
sg14
S'Gautami'
p352
sg16
I700
sg17
g13
sg18
g13
sg19
S'C:\\Windows\\Fonts\\gautamib.ttf'
p353
sg21
g22
sbag7
(g8
g9
NtRp354
(dp355
g12
g13
sg14
S'Euphemia'
p356
sg16
I400
sg17
g13
sg18
g13
sg19
S'C:\\Windows\\Fonts\\euphemia.ttf'
p357
sg21
g22
sbag7
(g8
g9
NtRp358
(dp359
g12
g50
sg14
S'Georgia'
p360
sg16
I400
sg17
g13
sg18
g13
sg19
S'C:\\Windows\\Fonts\\georgiai.ttf'
p361
sg21
g22
sbag7
(g8
g9
NtRp362
(dp363
g12
g13
sg14
S'Ligurino Condensed'
p364
sg16
I400
sg17
g288
sg18
g13
sg19
S'c:\\windows\\fonts\\ligurino condensed.ttf'
p365
sg21
g22
sbag7
(g8
g9
NtRp366
(dp367
g12
g13
sg14
S'Waker'
p368
sg16
I400
sg17
g13
sg18
g13
sg19
S'C:\\Windows\\Fonts\\waker___.ttf'
p369
sg21
g22
sbag7
(g8
g9
NtRp370
(dp371
g12
g13
sg14
S'Teen Light'
p372
sg16
I200
sg17
g13
sg18
g13
sg19
S'c:\\windows\\fonts\\teenlite.ttf'
p373
sg21
g22
sbag7
(g8
g9
NtRp374
(dp375
g12
g13
sg14
S'Hurry Up'
p376
sg16
I400
sg17
g13
sg18
g13
sg19
S'c:\\windows\\fonts\\hurryup.ttf'
p377
sg21
g22
sbag7
(g8
g9
NtRp378
(dp379
g12
g13
sg14
S'Velvenda Cooler'
p380
sg16
I400
sg17
g13
sg18
g13
sg19
S'C:\\Windows\\Fonts\\VELVENDC.TTF'
p381
sg21
g22
sbag7
(g8
g9
NtRp382
(dp383
g12
g13
sg14
S'Microsoft Himalaya'
p384
sg16
I400
sg17
g13
sg18
g13
sg19
S'C:\\Windows\\Fonts\\himalaya.ttf'
p385
sg21
g22
sbag7
(g8
g9
NtRp386
(dp387
g12
g13
sg14
S'CatholicSchoolGirls Intl BB'
p388
sg16
I400
sg17
g13
sg18
g13
sg19
S'c:\\windows\\fonts\\cschoolgirlsintl.ttf'
p389
sg21
g22
sbag7
(g8
g9
NtRp390
(dp391
g12
g13
sg14
S'Credit Valley'
p392
sg16
I400
sg17
g13
sg18
g13
sg19
S'c:\\windows\\fonts\\creditva.ttf'
p393
sg21
g22
sbag7
(g8
g9
NtRp394
(dp395
g12
g13
sg14
S'Kokila'
p396
sg16
I700
sg17
g13
sg18
g13
sg19
S'c:\\windows\\fonts\\kokilab.ttf'
p397
sg21
g22
sbag7
(g8
g9
NtRp398
(dp399
g12
g13
sg14
S'DejaVu Sans'
p400
sg16
I700
sg17
g288
sg18
g13
sg19
S'c:\\windows\\fonts\\dejavusanscondensed-bold.ttf'
p401
sg21
g22
sbag7
(g8
g9
NtRp402
(dp403
g12
g13
sg14
S'Consolas'
p404
sg16
I400
sg17
g13
sg18
g13
sg19
S'c:\\windows\\fonts\\consola.ttf'
p405
sg21
g22
sbag7
(g8
g9
NtRp406
(dp407
g12
g50
sg14
S'Helonia'
p408
sg16
I700
sg17
g13
sg18
g13
sg19
S'c:\\windows\\fonts\\hebo____.ttf'
p409
sg21
g22
sbag7
(g8
g9
NtRp410
(dp411
g12
g50
sg14
S'Angsana New'
p412
sg16
I400
sg17
g13
sg18
g13
sg19
S'C:\\Windows\\Fonts\\angsai.ttf'
p413
sg21
g22
sbag7
(g8
g9
NtRp414
(dp415
g12
g13
sg14
S'FreesiaUPC'
p416
sg16
I700
sg17
g13
sg18
g13
sg19
S'C:\\Windows\\Fonts\\upcfb.ttf'
p417
sg21
g22
sbag7
(g8
g9
NtRp418
(dp419
g12
g13
sg14
S'Arial'
p420
sg16
I700
sg17
g13
sg18
g13
sg19
S'c:\\windows\\fonts\\arialbd.ttf'
p421
sg21
g22
sbag7
(g8
g9
NtRp422
(dp423
g12
g13
sg14
S'Sakkal Majalla'
p424
sg16
I400
sg17
g13
sg18
g13
sg19
S'C:\\Windows\\Fonts\\majalla.ttf'
p425
sg21
g22
sbag7
(g8
g9
NtRp426
(dp427
g12
g33
sg14
S'DejaVu Sans'
p428
sg16
I700
sg17
g13
sg18
g13
sg19
S'C:\\Windows\\Fonts\\DejaVuSans-BoldOblique.ttf'
p429
sg21
g22
sbag7
(g8
g9
NtRp430
(dp431
g12
g13
sg14
S'Tiger Expert'
p432
sg16
I400
sg17
g13
sg18
g13
sg19
S'C:\\Windows\\Fonts\\Tiger Expert.ttf'
p433
sg21
g22
sbag7
(g8
g9
NtRp434
(dp435
g12
g13
sg14
S'Gentium Book Basic'
p436
sg16
I700
sg17
g13
sg18
g13
sg19
S'C:\\Windows\\Fonts\\GenBkBasB.ttf'
p437
sg21
g22
sbag7
(g8
g9
NtRp438
(dp439
g12
g13
sg14
S'Microsoft YaHei'
p440
sg16
I400
sg17
g13
sg18
g13
sg19
S'c:\\windows\\fonts\\msyh.ttf'
p441
sg21
g22
sbag7
(g8
g9
NtRp442
(dp443
g12
g13
sg14
S'Tunga'
p444
sg16
I400
sg17
g13
sg18
g13
sg19
S'C:\\Windows\\Fonts\\tunga.ttf'
p445
sg21
g22
sbag7
(g8
g9
NtRp446
(dp447
g12
g13
sg14
S'Raavi'
p448
sg16
I400
sg17
g13
sg18
g13
sg19
S'C:\\Windows\\Fonts\\raavi.ttf'
p449
sg21
g22
sbag7
(g8
g9
NtRp450
(dp451
g12
g50
sg14
S'Cambria'
p452
sg16
I700
sg17
g13
sg18
g13
sg19
S'C:\\Windows\\Fonts\\cambriaz.ttf'
p453
sg21
g22
sbag7
(g8
g9
NtRp454
(dp455
g12
g13
sg14
S'Estrangelo Edessa'
p456
sg16
I400
sg17
g13
sg18
g13
sg19
S'C:\\Windows\\Fonts\\estre.ttf'
p457
sg21
g22
sbag7
(g8
g9
NtRp458
(dp459
g12
g50
sg14
S'Wickenden Cafe NDP'
p460
sg16
I400
sg17
g13
sg18
g13
sg19
S'C:\\Windows\\Fonts\\WICKCNI_.TTF'
p461
sg21
g22
sbag7
(g8
g9
NtRp462
(dp463
g12
g50
sg14
S'IrisUPC'
p464
sg16
I700
sg17
g13
sg18
g13
sg19
S'C:\\Windows\\Fonts\\upcibi.ttf'
p465
sg21
g22
sbag7
(g8
g9
NtRp466
(dp467
g12
g13
sg14
S'ESSTIXFour'
p468
sg16
I400
sg17
g13
sg18
g13
sg19
S'c:\\windows\\fonts\\esstix4_.ttf'
p469
sg21
g22
sbag7
(g8
g9
NtRp470
(dp471
g12
g13
sg14
S'Microsoft JhengHei'
p472
sg16
I700
sg17
g13
sg18
g13
sg19
S'c:\\windows\\fonts\\msjhbd.ttf'
p473
sg21
g22
sbag7
(g8
g9
NtRp474
(dp475
g12
g50
sg14
S'Segoe UI'
p476
sg16
I400
sg17
g13
sg18
g13
sg19
S'C:\\Windows\\Fonts\\segoeuii.ttf'
p477
sg21
g22
sbag7
(g8
g9
NtRp478
(dp479
g12
g13
sg14
S'DejaVu Sans Mono'
p480
sg16
I400
sg17
g13
sg18
g13
sg19
S'C:\\Windows\\Fonts\\DejaVuSansMono.ttf'
p481
sg21
g22
sbag7
(g8
g9
NtRp482
(dp483
g12
g13
sg14
S'Segoe UI'
p484
sg16
I400
sg17
g13
sg18
g13
sg19
S'c:\\windows\\fonts\\segoeui.ttf'
p485
sg21
g22
sbag7
(g8
g9
NtRp486
(dp487
g12
g13
sg14
S'Mangal'
p488
sg16
I400
sg17
g13
sg18
g13
sg19
S'C:\\Windows\\Fonts\\mangal.ttf'
p489
sg21
g22
sbag7
(g8
g9
NtRp490
(dp491
g12
g13
sg14
S'Levenim MT'
p492
sg16
I700
sg17
g13
sg18
g13
sg19
S'C:\\Windows\\Fonts\\lvnmbd.ttf'
p493
sg21
g22
sbag7
(g8
g9
NtRp494
(dp495
g12
g50
sg14
S'AngsanaUPC'
p496
sg16
I400
sg17
g13
sg18
g13
sg19
S'c:\\windows\\fonts\\angsaui.ttf'
p497
sg21
g22
sbag7
(g8
g9
NtRp498
(dp499
g12
g13
sg14
S'Amienne'
p500
sg16
I700
sg17
g13
sg18
g13
sg19
S'C:\\Windows\\Fonts\\AMIENNEB.TTF'
p501
sg21
g22
sbag7
(g8
g9
NtRp502
(dp503
g12
g13
sg14
S'Tiger Expert'
p504
sg16
I400
sg17
g13
sg18
g13
sg19
S'c:\\windows\\fonts\\tiger expert.ttf'
p505
sg21
g22
sbag7
(g8
g9
NtRp506
(dp507
g12
g13
sg14
S'Arimo'
p508
sg16
I400
sg17
g13
sg18
g13
sg19
S'c:\\windows\\fonts\\arimo-regular.ttf'
p509
sg21
g22
sbag7
(g8
g9
NtRp510
(dp511
g12
g50
sg14
S'Book Antiqua'
p512
sg16
I700
sg17
g13
sg18
g13
sg19
S'c:\\windows\\fonts\\antquabi.ttf'
p513
sg21
g22
sbag7
(g8
g9
NtRp514
(dp515
g12
g50
sg14
S'Teen'
p516
sg16
I700
sg17
g13
sg18
g13
sg19
S'C:\\Windows\\Fonts\\TEENBDIT.TTF'
p517
sg21
g22
sbag7
(g8
g9
NtRp518
(dp519
g12
g13
sg14
S'Kristen ITC'
p520
sg16
I400
sg17
g13
sg18
g13
sg19
S'C:\\Windows\\Fonts\\ITCKRIST.TTF'
p521
sg21
g22
sbag7
(g8
g9
NtRp522
(dp523
g12
g13
sg14
S'Marlett'
p524
sg16
I400
sg17
g13
sg18
g13
sg19
S'C:\\Windows\\Fonts\\marlett.ttf'
p525
sg21
g22
sbag7
(g8
g9
NtRp526
(dp527
g12
g13
sg14
S'Browallia New'
p528
sg16
I700
sg17
g13
sg18
g13
sg19
S'c:\\windows\\fonts\\browab.ttf'
p529
sg21
g22
sbag7
(g8
g9
NtRp530
(dp531
g12
g13
sg14
S'Corbel'
p532
sg16
I700
sg17
g13
sg18
g13
sg19
S'c:\\windows\\fonts\\corbelb.ttf'
p533
sg21
g22
sbag7
(g8
g9
NtRp534
(dp535
g12
g13
sg14
S'Simplified Arabic'
p536
sg16
I700
sg17
g13
sg18
g13
sg19
S'c:\\windows\\fonts\\simpbdo.ttf'
p537
sg21
g22
sbag7
(g8
g9
NtRp538
(dp539
g12
g13
sg14
S'DejaVu Sans'
p540
sg16
I200
sg17
g13
sg18
g13
sg19
S'C:\\Windows\\Fonts\\DejaVuSans-ExtraLight.ttf'
p541
sg21
g22
sbag7
(g8
g9
NtRp542
(dp543
g12
g13
sg14
S'Catriel'
p544
sg16
I400
sg17
g13
sg18
g13
sg19
S'C:\\Windows\\Fonts\\catriel regular.ttf'
p545
sg21
g22
sbag7
(g8
g9
NtRp546
(dp547
g12
g13
sg14
S'ESSTIXSix'
p548
sg16
I400
sg17
g13
sg18
g13
sg19
S'C:\\Windows\\Fonts\\ESSTIX6_.TTF'
p549
sg21
g22
sbag7
(g8
g9
NtRp550
(dp551
g12
g13
sg14
S'LilyUPC'
p552
sg16
I400
sg17
g13
sg18
g13
sg19
S'C:\\Windows\\Fonts\\upcll.ttf'
p553
sg21
g22
sbag7
(g8
g9
NtRp554
(dp555
g12
g50
sg14
S'FreesiaUPC'
p556
sg16
I700
sg17
g13
sg18
g13
sg19
S'C:\\Windows\\Fonts\\upcfbi.ttf'
p557
sg21
g22
sbag7
(g8
g9
NtRp558
(dp559
g12
g50
sg14
S'Gentium Book Basic'
p560
sg16
I700
sg17
g13
sg18
g13
sg19
S'C:\\Windows\\Fonts\\GenBkBasBI.ttf'
p561
sg21
g22
sbag7
(g8
g9
NtRp562
(dp563
g12
g50
sg14
S'Book Antiqua'
p564
sg16
I400
sg17
g13
sg18
g13
sg19
S'c:\\windows\\fonts\\antquai.ttf'
p565
sg21
g22
sbag7
(g8
g9
NtRp566
(dp567
g12
g13
sg14
S'Nirmala UI'
p568
sg16
I400
sg17
g13
sg18
g13
sg19
S'c:\\windows\\fonts\\nirmala.ttf'
p569
sg21
g22
sbag7
(g8
g9
NtRp570
(dp571
g12
g13
sg14
S'Credit Valley'
p572
sg16
I700
sg17
g13
sg18
g13
sg19
S'c:\\windows\\fonts\\creditvb.ttf'
p573
sg21
g22
sbag7
(g8
g9
NtRp574
(dp575
g12
g13
sg14
S'ESSTIXFourteen'
p576
sg16
I400
sg17
g13
sg18
g13
sg19
S'c:\\windows\\fonts\\esstix14.ttf'
p577
sg21
g22
sbag7
(g8
g9
NtRp578
(dp579
g12
g13
sg14
S'Vrinda'
p580
sg16
I700
sg17
g13
sg18
g13
sg19
S'C:\\Windows\\Fonts\\vrindab.ttf'
p581
sg21
g22
sbag7
(g8
g9
NtRp582
(dp583
g12
g13
sg14
S'Kalinga'
p584
sg16
I700
sg17
g13
sg18
g13
sg19
S'C:\\Windows\\Fonts\\kalingab.ttf'
p585
sg21
g22
sbag7
(g8
g9
NtRp586
(dp587
g12
g13
sg14
S'Heavy Heap'
p588
sg16
I800
sg17
g13
sg18
g13
sg19
S'c:\\windows\\fonts\\heavyheap.ttf'
p589
sg21
g22
sbag7
(g8
g9
NtRp590
(dp591
g12
g50
sg14
S'Calibri'
p592
sg16
I400
sg17
g13
sg18
g13
sg19
S'C:\\Windows\\Fonts\\calibrii.ttf'
p593
sg21
g22
sbag7
(g8
g9
NtRp594
(dp595
g12
g13
sg14
S'Gisha'
p596
sg16
I400
sg17
g13
sg18
g13
sg19
S'C:\\Windows\\Fonts\\gisha.ttf'
p597
sg21
g22
sbag7
(g8
g9
NtRp598
(dp599
g12
g50
sg14
S'Catriel'
p600
sg16
I700
sg17
g13
sg18
g13
sg19
S'c:\\windows\\fonts\\catriel bolditalic.ttf'
p601
sg21
g22
sbag7
(g8
g9
NtRp602
(dp603
g12
g50
sg14
S'Franklin Gothic Medium'
p604
sg16
I500
sg17
g13
sg18
g13
sg19
S'C:\\Windows\\Fonts\\framdit.ttf'
p605
sg21
g22
sbag7
(g8
g9
NtRp606
(dp607
g12
g50
sg14
S'Utsaah'
p608
sg16
I400
sg17
g13
sg18
g13
sg19
S'c:\\windows\\fonts\\utsaahi.ttf'
p609
sg21
g22
sbag7
(g8
g9
NtRp610
(dp611
g12
g50
sg14
S'DilleniaUPC'
p612
sg16
I400
sg17
g13
sg18
g13
sg19
S'c:\\windows\\fonts\\upcdi.ttf'
p613
sg21
g22
sbag7
(g8
g9
NtRp614
(dp615
g12
g13
sg14
S'DFKai-SB'
p616
sg16
I400
sg17
g13
sg18
g13
sg19
S'C:\\Windows\\Fonts\\kaiu.ttf'
p617
sg21
g22
sbag7
(g8
g9
NtRp618
(dp619
g12
g13
sg14
S'Stereofidelic'
p620
sg16
I400
sg17
g13
sg18
g13
sg19
S'c:\\windows\\fonts\\stereofi.ttf'
p621
sg21
g22
sbag7
(g8
g9
NtRp622
(dp623
g12
g13
sg14
S'ESSTIXTwo'
p624
sg16
I400
sg17
g13
sg18
g13
sg19
S'C:\\Windows\\Fonts\\ESSTIX2_.TTF'
p625
sg21
g22
sbag7
(g8
g9
NtRp626
(dp627
g12
g50
sg14
S'AngsanaUPC'
p628
sg16
I700
sg17
g13
sg18
g13
sg19
S'c:\\windows\\fonts\\angsauz.ttf'
p629
sg21
g22
sbag7
(g8
g9
NtRp630
(dp631
g12
g13
sg14
S'Shonar Bangla'
p632
sg16
I400
sg17
g13
sg18
g13
sg19
S'c:\\windows\\fonts\\shonar.ttf'
p633
sg21
g22
sbag7
(g8
g9
NtRp634
(dp635
g12
g13
sg14
S'Teen'
p636
sg16
I700
sg17
g13
sg18
g13
sg19
S'c:\\windows\\fonts\\teenbold.ttf'
p637
sg21
g22
sbag7
(g8
g9
NtRp638
(dp639
g12
g13
sg14
S'Teen'
p640
sg16
I700
sg17
g13
sg18
g13
sg19
S'C:\\Windows\\Fonts\\TEENBOLD.TTF'
p641
sg21
g22
sbag7
(g8
g9
NtRp642
(dp643
g12
g13
sg14
S'Euphorigenic S'
p644
sg16
I400
sg17
g13
sg18
g13
sg19
S'C:\\Windows\\Fonts\\euphorigenic_s.ttf'
p645
sg21
g22
sbag7
(g8
g9
NtRp646
(dp647
g12
g13
sg14
S'Microsoft Uighur'
p648
sg16
I700
sg17
g13
sg18
g13
sg19
S'C:\\Windows\\Fonts\\MSUIGHUB.TTF'
p649
sg21
g22
sbag7
(g8
g9
NtRp650
(dp651
g12
g13
sg14
S'ESSTIXFifteen'
p652
sg16
I400
sg17
g13
sg18
g13
sg19
S'C:\\Windows\\Fonts\\ESSTIX15.TTF'
p653
sg21
g22
sbag7
(g8
g9
NtRp654
(dp655
g12
g50
sg14
S'Verdana'
p656
sg16
I400
sg17
g13
sg18
g13
sg19
S'c:\\windows\\fonts\\verdanai.ttf'
p657
sg21
g22
sbag7
(g8
g9
NtRp658
(dp659
g12
g13
sg14
S'Constantia'
p660
sg16
I700
sg17
g13
sg18
g13
sg19
S'C:\\Windows\\Fonts\\constanb.ttf'
p661
sg21
g22
sbag7
(g8
g9
NtRp662
(dp663
g12
g50
sg14
S'Euclid Symbol'
p664
sg16
I700
sg17
g13
sg18
g13
sg19
S'C:\\Windows\\Fonts\\eucsymbi.ttf'
p665
sg21
g22
sbag7
(g8
g9
NtRp666
(dp667
g12
g13
sg14
S'Wingdings 2'
p668
sg16
I400
sg17
g13
sg18
g13
sg19
S'C:\\Windows\\Fonts\\WINGDNG2.TTF'
p669
sg21
g22
sbag7
(g8
g9
NtRp670
(dp671
g12
g13
sg14
S'Utsaah'
p672
sg16
I400
sg17
g13
sg18
g13
sg19
S'c:\\windows\\fonts\\utsaah.ttf'
p673
sg21
g22
sbag7
(g8
g9
NtRp674
(dp675
g12
g13
sg14
S'Microsoft YaHei'
p676
sg16
I700
sg17
g13
sg18
g13
sg19
S'c:\\windows\\fonts\\msyhbd.ttf'
p677
sg21
g22
sbag7
(g8
g9
NtRp678
(dp679
g12
g13
sg14
S'Symbol'
p680
sg16
I400
sg17
g13
sg18
g13
sg19
S'c:\\windows\\fonts\\symbol.ttf'
p681
sg21
g22
sbag7
(g8
g9
NtRp682
(dp683
g12
g13
sg14
S'Sylfaen'
p684
sg16
I400
sg17
g13
sg18
g13
sg19
S'c:\\windows\\fonts\\sylfaen.ttf'
p685
sg21
g22
sbag7
(g8
g9
NtRp686
(dp687
g12
g13
sg14
S'Mongolian Baiti'
p688
sg16
I400
sg17
g13
sg18
g13
sg19
S'C:\\Windows\\Fonts\\monbaiti.ttf'
p689
sg21
g22
sbag7
(g8
g9
NtRp690
(dp691
g12
g50
sg14
S'Calibri'
p692
sg16
I700
sg17
g13
sg18
g13
sg19
S'C:\\Windows\\Fonts\\calibriz.ttf'
p693
sg21
g22
sbag7
(g8
g9
NtRp694
(dp695
g12
g13
sg14
S'Aharoni'
p696
sg16
I700
sg17
g13
sg18
g13
sg19
S'c:\\windows\\fonts\\ahronbd.ttf'
p697
sg21
g22
sbag7
(g8
g9
NtRp698
(dp699
g12
g13
sg14
S'Bradley Hand ITC'
p700
sg16
I400
sg17
g13
sg18
g13
sg19
S'C:\\Windows\\Fonts\\BRADHITC.TTF'
p701
sg21
g22
sbag7
(g8
g9
NtRp702
(dp703
g12
g13
sg14
S'Utsaah'
p704
sg16
I700
sg17
g13
sg18
g13
sg19
S'c:\\windows\\fonts\\utsaahb.ttf'
p705
sg21
g22
sbag7
(g8
g9
NtRp706
(dp707
g12
g50
sg14
S'JasmineUPC'
p708
sg16
I700
sg17
g13
sg18
g13
sg19
S'C:\\Windows\\Fonts\\upcjbi.ttf'
p709
sg21
g22
sbag7
(g8
g9
NtRp710
(dp711
g12
g13
sg14
S'Euclid'
p712
sg16
I700
sg17
g13
sg18
g13
sg19
S'C:\\Windows\\Fonts\\euclidb.ttf'
p713
sg21
g22
sbag7
(g8
g9
NtRp714
(dp715
g12
g50
sg14
S'Gentium Basic'
p716
sg16
I700
sg17
g13
sg18
g13
sg19
S'c:\\windows\\fonts\\genbasbi.ttf'
p717
sg21
g22
sbag7
(g8
g9
NtRp718
(dp719
g12
g13
sg14
S'Amienne'
p720
sg16
I700
sg17
g13
sg18
g13
sg19
S'c:\\windows\\fonts\\amienneb.ttf'
p721
sg21
g22
sbag7
(g8
g9
NtRp722
(dp723
g12
g50
sg14
S'Euclid'
p724
sg16
I400
sg17
g13
sg18
g13
sg19
S'C:\\Windows\\Fonts\\euclidi.ttf'
p725
sg21
g22
sbag7
(g8
g9
NtRp726
(dp727
g12
g13
sg14
S'Book Antiqua'
p728
sg16
I400
sg17
g13
sg18
g13
sg19
S'C:\\Windows\\Fonts\\BKANT.TTF'
p729
sg21
g22
sbag7
(g8
g9
NtRp730
(dp731
g12
g13
sg14
S'Earwig Factory'
p732
sg16
I400
sg17
g13
sg18
g13
sg19
S'c:\\windows\\fonts\\earwigfa.ttf'
p733
sg21
g22
sbag7
(g8
g9
NtRp734
(dp735
g12
g50
sg14
S'Teen'
p736
sg16
I400
sg17
g13
sg18
g13
sg19
S'c:\\windows\\fonts\\teenital.ttf'
p737
sg21
g22
sbag7
(g8
g9
NtRp738
(dp739
g12
g50
sg14
S'Euclid'
p740
sg16
I700
sg17
g13
sg18
g13
sg19
S'c:\\windows\\fonts\\euclidbi.ttf'
p741
sg21
g22
sbag7
(g8
g9
NtRp742
(dp743
g12
g13
sg14
S'IrisUPC'
p744
sg16
I700
sg17
g13
sg18
g13
sg19
S'C:\\Windows\\Fonts\\upcib.ttf'
p745
sg21
g22
sbag7
(g8
g9
NtRp746
(dp747
g12
g13
sg14
S'Gentium Book Basic'
p748
sg16
I400
sg17
g13
sg18
g13
sg19
S'c:\\windows\\fonts\\genbkbasr.ttf'
p749
sg21
g22
sbag7
(g8
g9
NtRp750
(dp751
g12
g50
sg14
S'Constantia'
p752
sg16
I700
sg17
g13
sg18
g13
sg19
S'C:\\Windows\\Fonts\\constanz.ttf'
p753
sg21
g22
sbag7
(g8
g9
NtRp754
(dp755
g12
g13
sg14
S'KodchiangUPC'
p756
sg16
I400
sg17
g13
sg18
g13
sg19
S'c:\\windows\\fonts\\upckl.ttf'
p757
sg21
g22
sbag7
(g8
g9
NtRp758
(dp759
g12
g13
sg14
S'Gadugi'
p760
sg16
I400
sg17
g13
sg18
g13
sg19
S'c:\\windows\\fonts\\gadugi.ttf'
p761
sg21
g22
sbag7
(g8
g9
NtRp762
(dp763
g12
g13
sg14
S'Ligurino'
p764
sg16
I700
sg17
g13
sg18
g13
sg19
S'c:\\windows\\fonts\\ligurino bold.ttf'
p765
sg21
g22
sbag7
(g8
g9
NtRp766
(dp767
g12
g50
sg14
S'Book Antiqua'
p768
sg16
I700
sg17
g13
sg18
g13
sg19
S'C:\\Windows\\Fonts\\ANTQUABI.TTF'
p769
sg21
g22
sbag7
(g8
g9
NtRp770
(dp771
g12
g33
sg14
S'DejaVu Sans'
p772
sg16
I400
sg17
g13
sg18
g13
sg19
S'c:\\windows\\fonts\\dejavusans-oblique.ttf'
p773
sg21
g22
sbag7
(g8
g9
NtRp774
(dp775
g12
g50
sg14
S'Tandelle'
p776
sg16
I700
sg17
g13
sg18
g13
sg19
S'C:\\Windows\\Fonts\\tandelle bolditalic.ttf'
p777
sg21
g22
sbag7
(g8
g9
NtRp778
(dp779
g12
g50
sg14
S'Bookman Old Style'
p780
sg16
I400
sg17
g13
sg18
g13
sg19
S'c:\\windows\\fonts\\bookosi.ttf'
p781
sg21
g22
sbag7
(g8
g9
NtRp782
(dp783
g12
g50
sg14
S'Ligurino'
p784
sg16
I400
sg17
g13
sg18
g13
sg19
S'C:\\Windows\\Fonts\\ligurino italic.ttf'
p785
sg21
g22
sbag7
(g8
g9
NtRp786
(dp787
g12
g50
sg14
S'FreesiaUPC'
p788
sg16
I400
sg17
g13
sg18
g13
sg19
S'c:\\windows\\fonts\\upcfi.ttf'
p789
sg21
g22
sbag7
(g8
g9
NtRp790
(dp791
g12
g13
sg14
S'Franklin Gothic Medium'
p792
sg16
I500
sg17
g13
sg18
g13
sg19
S'C:\\Windows\\Fonts\\framd.ttf'
p793
sg21
g22
sbag7
(g8
g9
NtRp794
(dp795
g12
g13
sg14
S'Euclid Math One'
p796
sg16
I400
sg17
g13
sg18
g13
sg19
S'c:\\windows\\fonts\\eumat1.ttf'
p797
sg21
g22
sbag7
(g8
g9
NtRp798
(dp799
g12
g13
sg14
S'Microsoft Tai Le'
p800
sg16
I400
sg17
g13
sg18
g13
sg19
S'c:\\windows\\fonts\\taile.ttf'
p801
sg21
g22
sbag7
(g8
g9
NtRp802
(dp803
g12
g50
sg14
S'KodchiangUPC'
p804
sg16
I700
sg17
g13
sg18
g13
sg19
S'C:\\Windows\\Fonts\\upckbi.ttf'
p805
sg21
g22
sbag7
(g8
g9
NtRp806
(dp807
g12
g13
sg14
S'Boopee'
p808
sg16
I700
sg17
g13
sg18
g13
sg19
S'c:\\windows\\fonts\\boopee_bold.ttf'
p809
sg21
g22
sbag7
(g8
g9
NtRp810
(dp811
g12
g13
sg14
S'Calibri'
p812
sg16
I400
sg17
g13
sg18
g13
sg19
S'c:\\windows\\fonts\\calibri.ttf'
p813
sg21
g22
sbag7
(g8
g9
NtRp814
(dp815
g12
g13
sg14
S'Pristina'
p816
sg16
I400
sg17
g13
sg18
g13
sg19
S'c:\\windows\\fonts\\pristina.ttf'
p817
sg21
g22
sbag7
(g8
g9
NtRp818
(dp819
g12
g50
sg14
S'Gentium Book Basic'
p820
sg16
I400
sg17
g13
sg18
g13
sg19
S'c:\\windows\\fonts\\genbkbasi.ttf'
p821
sg21
g22
sbag7
(g8
g9
NtRp822
(dp823
g12
g13
sg14
S'Amienne'
p824
sg16
I400
sg17
g13
sg18
g13
sg19
S'C:\\Windows\\Fonts\\AMIENNE_.TTF'
p825
sg21
g22
sbag7
(g8
g9
NtRp826
(dp827
g12
g13
sg14
S'MaplePi'
p828
sg16
I400
sg17
g13
sg18
g13
sg19
S'C:\\Windows\\Fonts\\MaplePi.ttf'
p829
sg21
g22
sbag7
(g8
g9
NtRp830
(dp831
g12
g13
sg14
S'Impact'
p832
sg16
I400
sg17
g13
sg18
g13
sg19
S'C:\\Windows\\Fonts\\impact.ttf'
p833
sg21
g22
sbag7
(g8
g9
NtRp834
(dp835
g12
g13
sg14
S'IrisUPC'
p836
sg16
I400
sg17
g13
sg18
g13
sg19
S'c:\\windows\\fonts\\upcil.ttf'
p837
sg21
g22
sbag7
(g8
g9
NtRp838
(dp839
g12
g13
sg14
S'Fences'
p840
sg16
I400
sg17
g13
sg18
g13
sg19
S'C:\\Windows\\Fonts\\fences.ttf'
p841
sg21
g22
sbag7
(g8
g9
NtRp842
(dp843
g12
g13
sg14
S'Wingdings'
p844
sg16
I400
sg17
g13
sg18
g13
sg19
S'C:\\Windows\\Fonts\\wingding.ttf'
p845
sg21
g22
sbag7
(g8
g9
NtRp846
(dp847
g12
g13
sg14
S'Latha'
p848
sg16
I400
sg17
g13
sg18
g13
sg19
S'c:\\windows\\fonts\\latha.ttf'
p849
sg21
g22
sbag7
(g8
g9
NtRp850
(dp851
g12
g50
sg14
S'Cambria'
p852
sg16
I400
sg17
g13
sg18
g13
sg19
S'c:\\windows\\fonts\\cambriai.ttf'
p853
sg21
g22
sbag7
(g8
g9
NtRp854
(dp855
g12
g13
sg14
S'Mangal'
p856
sg16
I700
sg17
g13
sg18
g13
sg19
S'C:\\Windows\\Fonts\\mangalb.ttf'
p857
sg21
g22
sbag7
(g8
g9
NtRp858
(dp859
g12
g13
sg14
S'Kartika'
p860
sg16
I400
sg17
g13
sg18
g13
sg19
S'C:\\Windows\\Fonts\\kartika.ttf'
p861
sg21
g22
sbag7
(g8
g9
NtRp862
(dp863
g12
g13
sg14
S'Vani'
p864
sg16
I400
sg17
g13
sg18
g13
sg19
S'c:\\windows\\fonts\\vani.ttf'
p865
sg21
g22
sbag7
(g8
g9
NtRp866
(dp867
g12
g13
sg14
S'DejaVu Serif'
p868
sg16
I400
sg17
g288
sg18
g13
sg19
S'c:\\windows\\fonts\\dejavuserifcondensed.ttf'
p869
sg21
g22
sbag7
(g8
g9
NtRp870
(dp871
g12
g13
sg14
S'DilleniaUPC'
p872
sg16
I400
sg17
g13
sg18
g13
sg19
S'c:\\windows\\fonts\\upcdl.ttf'
p873
sg21
g22
sbag7
(g8
g9
NtRp874
(dp875
g12
g13
sg14
S'LilyUPC'
p876
sg16
I700
sg17
g13
sg18
g13
sg19
S'C:\\Windows\\Fonts\\upclb.ttf'
p877
sg21
g22
sbag7
(g8
g9
NtRp878
(dp879
g12
g13
sg14
S'Monotype Corsiva'
p880
sg16
I400
sg17
g13
sg18
g13
sg19
S'C:\\Windows\\Fonts\\MTCORSVA.TTF'
p881
sg21
g22
sbag7
(g8
g9
NtRp882
(dp883
g12
g13
sg14
S'Lucida Sans Unicode'
p884
sg16
I400
sg17
g13
sg18
g13
sg19
S'C:\\Windows\\Fonts\\l_10646.ttf'
p885
sg21
g22
sbag7
(g8
g9
NtRp886
(dp887
g12
g13
sg14
S'Segoe UI'
p888
sg16
I400
sg17
g13
sg18
g13
sg19
S'C:\\Windows\\Fonts\\SEGOEUISL.TTF'
p889
sg21
g22
sbag7
(g8
g9
NtRp890
(dp891
g12
g50
sg14
S'Book Antiqua'
p892
sg16
I400
sg17
g13
sg18
g13
sg19
S'C:\\Windows\\Fonts\\ANTQUAI.TTF'
p893
sg21
g22
sbag7
(g8
g9
NtRp894
(dp895
g12
g33
sg14
S'DejaVu Sans Mono'
p896
sg16
I400
sg17
g13
sg18
g13
sg19
S'C:\\Windows\\Fonts\\DejaVuSansMono-Oblique.ttf'
p897
sg21
g22
sbag7
(g8
g9
NtRp898
(dp899
g12
g13
sg14
S'Courant'
p900
sg16
I700
sg17
g13
sg18
g13
sg19
S'c:\\windows\\fonts\\cob_____.ttf'
p901
sg21
g22
sbag7
(g8
g9
NtRp902
(dp903
g12
g13
sg14
S'Arial Unicode MS'
p904
sg16
I400
sg17
g13
sg18
g13
sg19
S'c:\\windows\\fonts\\arialuni.ttf'
p905
sg21
g22
sbag7
(g8
g9
NtRp906
(dp907
g12
g50
sg14
S'Aparajita'
p908
sg16
I700
sg17
g13
sg18
g13
sg19
S'c:\\windows\\fonts\\aparajbi.ttf'
p909
sg21
g22
sbag7
(g8
g9
NtRp910
(dp911
g12
g13
sg14
S'Ebrima'
p912
sg16
I700
sg17
g13
sg18
g13
sg19
S'c:\\windows\\fonts\\ebrimabd.ttf'
p913
sg21
g22
sbag7
(g8
g9
NtRp914
(dp915
g12
g13
sg14
S'Segoe Print'
p916
sg16
I400
sg17
g13
sg18
g13
sg19
S'C:\\Windows\\Fonts\\segoepr.ttf'
p917
sg21
g22
sbag7
(g8
g9
NtRp918
(dp919
g12
g13
sg14
S'Microsoft Sans Serif'
p920
sg16
I400
sg17
g13
sg18
g13
sg19
S'C:\\Windows\\Fonts\\micross.ttf'
p921
sg21
g22
sbag7
(g8
g9
NtRp922
(dp923
g12
g13
sg14
S'Wingdings 3'
p924
sg16
I400
sg17
g13
sg18
g13
sg19
S'C:\\Windows\\Fonts\\WINGDNG3.TTF'
p925
sg21
g22
sbag7
(g8
g9
NtRp926
(dp927
g12
g50
sg14
S'Kokila'
p928
sg16
I700
sg17
g13
sg18
g13
sg19
S'C:\\Windows\\Fonts\\kokilabi.ttf'
p929
sg21
g22
sbag7
(g8
g9
NtRp930
(dp931
g12
g13
sg14
S'Blue Highway Condensed'
p932
sg16
I400
sg17
g288
sg18
g13
sg19
S'C:\\Windows\\Fonts\\BLUECOND.TTF'
p933
sg21
g22
sbag7
(g8
g9
NtRp934
(dp935
g12
g13
sg14
S'MS Reference Specialty'
p936
sg16
I400
sg17
g13
sg18
g13
sg19
S'c:\\windows\\fonts\\refspcl.ttf'
p937
sg21
g22
sbag7
(g8
g9
NtRp938
(dp939
g12
g13
sg14
S'Segoe Print'
p940
sg16
I700
sg17
g13
sg18
g13
sg19
S'C:\\Windows\\Fonts\\segoeprb.ttf'
p941
sg21
g22
sbag7
(g8
g9
NtRp942
(dp943
g12
g13
sg14
S'ESSTIXThree'
p944
sg16
I400
sg17
g13
sg18
g13
sg19
S'C:\\Windows\\Fonts\\ESSTIX3_.TTF'
p945
sg21
g22
sbag7
(g8
g9
NtRp946
(dp947
g12
g13
sg14
S'FreesiaUPC'
p948
sg16
I400
sg17
g13
sg18
g13
sg19
S'C:\\Windows\\Fonts\\upcfl.ttf'
p949
sg21
g22
sbag7
(g8
g9
NtRp950
(dp951
g12
g13
sg14
S'Miriam Fixed'
p952
sg16
I400
sg17
g13
sg18
g13
sg19
S'c:\\windows\\fonts\\mriamc.ttf'
p953
sg21
g22
sbag7
(g8
g9
NtRp954
(dp955
g12
g50
sg14
S'IrisUPC'
p956
sg16
I400
sg17
g13
sg18
g13
sg19
S'c:\\windows\\fonts\\upcii.ttf'
p957
sg21
g22
sbag7
(g8
g9
NtRp958
(dp959
g12
g13
sg14
S'DejaVu Serif'
p960
sg16
I400
sg17
g13
sg18
g13
sg19
S'C:\\Windows\\Fonts\\DejaVuSerif.ttf'
p961
sg21
g22
sbag7
(g8
g9
NtRp962
(dp963
g12
g50
sg14
S'Teen Light'
p964
sg16
I200
sg17
g13
sg18
g13
sg19
S'C:\\Windows\\Fonts\\TEENLITA.TTF'
p965
sg21
g22
sbag7
(g8
g9
NtRp966
(dp967
g12
g13
sg14
S'Times New Roman'
p968
sg16
I500
sg17
g13
sg18
g13
sg19
S'C:\\Windows\\Fonts\\times.ttf'
p969
sg21
g22
sbag7
(g8
g9
NtRp970
(dp971
g12
g50
sg14
S'Cordia New'
p972
sg16
I700
sg17
g13
sg18
g13
sg19
S'C:\\Windows\\Fonts\\cordiaz.ttf'
p973
sg21
g22
sbag7
(g8
g9
NtRp974
(dp975
g12
g13
sg14
S'Wingdings 2'
p976
sg16
I400
sg17
g13
sg18
g13
sg19
S'c:\\windows\\fonts\\wingdng2.ttf'
p977
sg21
g22
sbag7
(g8
g9
NtRp978
(dp979
g12
g13
sg14
S'Consolas'
p980
sg16
I700
sg17
g13
sg18
g13
sg19
S'c:\\windows\\fonts\\consolab.ttf'
p981
sg21
g22
sbag7
(g8
g9
NtRp982
(dp983
g12
g13
sg14
S'Papyrus'
p984
sg16
I400
sg17
g13
sg18
g13
sg19
S'C:\\Windows\\Fonts\\PAPYRUS.TTF'
p985
sg21
g22
sbag7
(g8
g9
NtRp986
(dp987
g12
g13
sg14
S'DejaVu Sans'
p988
sg16
I400
sg17
g13
sg18
g13
sg19
S'c:\\windows\\fonts\\dejavusans.ttf'
p989
sg21
g22
sbag7
(g8
g9
NtRp990
(dp991
g12
g13
sg14
S'Vijaya'
p992
sg16
I700
sg17
g13
sg18
g13
sg19
S'c:\\windows\\fonts\\vijayab.ttf'
p993
sg21
g22
sbag7
(g8
g9
NtRp994
(dp995
g12
g33
sg14
S'DejaVu Sans'
p996
sg16
I400
sg17
g288
sg18
g13
sg19
S'C:\\Windows\\Fonts\\DejaVuSansCondensed-Oblique.ttf'
p997
sg21
g22
sbag7
(g8
g9
NtRp998
(dp999
g12
g50
sg14
S'Courier New'
p1000
sg16
I400
sg17
g13
sg18
g13
sg19
S'c:\\windows\\fonts\\couri.ttf'
p1001
sg21
g22
sbag7
(g8
g9
NtRp1002
(dp1003
g12
g13
sg14
S'Shruti'
p1004
sg16
I700
sg17
g13
sg18
g13
sg19
S'C:\\Windows\\Fonts\\shrutib.ttf'
p1005
sg21
g22
sbag7
(g8
g9
NtRp1006
(dp1007
g12
g50
sg14
S'CordiaUPC'
p1008
sg16
I700
sg17
g13
sg18
g13
sg19
S'c:\\windows\\fonts\\cordiauz.ttf'
p1009
sg21
g22
sbag7
(g8
g9
NtRp1010
(dp1011
g12
g13
sg14
S'Leelawadee'
p1012
sg16
I400
sg17
g13
sg18
g13
sg19
S'c:\\windows\\fonts\\leelawad.ttf'
p1013
sg21
g22
sbag7
(g8
g9
NtRp1014
(dp1015
g12
g13
sg14
S'Arial'
p1016
sg16
I400
sg17
g13
sg18
g13
sg19
S'c:\\windows\\fonts\\arial.ttf'
p1017
sg21
g22
sbag7
(g8
g9
NtRp1018
(dp1019
g12
g13
sg14
S'Shonar Bangla'
p1020
sg16
I700
sg17
g13
sg18
g13
sg19
S'c:\\windows\\fonts\\shonarb.ttf'
p1021
sg21
g22
sbag7
(g8
g9
NtRp1022
(dp1023
g12
g13
sg14
S'Vani'
p1024
sg16
I400
sg17
g13
sg18
g13
sg19
S'C:\\Windows\\Fonts\\Vani.ttf'
p1025
sg21
g22
sbag7
(g8
g9
NtRp1026
(dp1027
g12
g13
sg14
S'ESSTIXEight'
p1028
sg16
I400
sg17
g13
sg18
g13
sg19
S'c:\\windows\\fonts\\esstix8_.ttf'
p1029
sg21
g22
sbag7
(g8
g9
NtRp1030
(dp1031
g12
g13
sg14
S'ESSTIXFive'
p1032
sg16
I400
sg17
g13
sg18
g13
sg19
S'c:\\windows\\fonts\\esstix5_.ttf'
p1033
sg21
g22
sbag7
(g8
g9
NtRp1034
(dp1035
g12
g13
sg14
S'DejaVu Sans Mono'
p1036
sg16
I700
sg17
g13
sg18
g13
sg19
S'c:\\windows\\fonts\\dejavusansmono-bold.ttf'
p1037
sg21
g22
sbag7
(g8
g9
NtRp1038
(dp1039
g12
g50
sg14
S'Helonia'
p1040
sg16
I400
sg17
g13
sg18
g13
sg19
S'C:\\Windows\\Fonts\\HEO_____.ttf'
p1041
sg21
g22
sbag7
(g8
g9
NtRp1042
(dp1043
g12
g13
sg14
S'MS Reference Sans Serif'
p1044
sg16
I400
sg17
g13
sg18
g13
sg19
S'c:\\windows\\fonts\\refsan.ttf'
p1045
sg21
g22
sbag7
(g8
g9
NtRp1046
(dp1047
g12
g13
sg14
S'Bookman Old Style'
p1048
sg16
I700
sg17
g13
sg18
g13
sg19
S'c:\\windows\\fonts\\bookosb.ttf'
p1049
sg21
g22
sbag7
(g8
g9
NtRp1050
(dp1051
g12
g13
sg14
S'Euclid'
p1052
sg16
I400
sg17
g13
sg18
g13
sg19
S'c:\\windows\\fonts\\euclid.ttf'
p1053
sg21
g22
sbag7
(g8
g9
NtRp1054
(dp1055
g12
g13
sg14
S'Blue Highway Condensed'
p1056
sg16
I400
sg17
g288
sg18
g13
sg19
S'c:\\windows\\fonts\\bluecond.ttf'
p1057
sg21
g22
sbag7
(g8
g9
NtRp1058
(dp1059
g12
g50
sg14
S'DilleniaUPC'
p1060
sg16
I700
sg17
g13
sg18
g13
sg19
S'c:\\windows\\fonts\\upcdbi.ttf'
p1061
sg21
g22
sbag7
(g8
g9
NtRp1062
(dp1063
g12
g50
sg14
S'Kokila'
p1064
sg16
I400
sg17
g13
sg18
g13
sg19
S'C:\\Windows\\Fonts\\kokilai.ttf'
p1065
sg21
g22
sbag7
(g8
g9
NtRp1066
(dp1067
g12
g13
sg14
S'Hurry Up'
p1068
sg16
I400
sg17
g13
sg18
g13
sg19
S'C:\\Windows\\Fonts\\HURRYUP.TTF'
p1069
sg21
g22
sbag7
(g8
g9
NtRp1070
(dp1071
g12
g50
sg14
S'Palatino Linotype'
p1072
sg16
I400
sg17
g13
sg18
g13
sg19
S'c:\\windows\\fonts\\palai.ttf'
p1073
sg21
g22
sbag7
(g8
g9
NtRp1074
(dp1075
g12
g13
sg14
S'Malgun Gothic'
p1076
sg16
I400
sg17
g13
sg18
g13
sg19
S'C:\\Windows\\Fonts\\malgun.ttf'
p1077
sg21
g22
sbag7
(g8
g9
NtRp1078
(dp1079
g12
g13
sg14
S'Helonia'
p1080
sg16
I700
sg17
g13
sg18
g13
sg19
S'C:\\Windows\\Fonts\\HEB_____.ttf'
p1081
sg21
g22
sbag7
(g8
g9
NtRp1082
(dp1083
g12
g13
sg14
S'Calibri'
p1084
sg16
I700
sg17
g13
sg18
g13
sg19
S'c:\\windows\\fonts\\calibrib.ttf'
p1085
sg21
g22
sbag7
(g8
g9
NtRp1086
(dp1087
g12
g50
sg14
S'Arimo'
p1088
sg16
I400
sg17
g13
sg18
g13
sg19
S'C:\\Windows\\Fonts\\Arimo-Italic.ttf'
p1089
sg21
g22
sbag7
(g8
g9
NtRp1090
(dp1091
g12
g13
sg14
S'ESSTIXNine'
p1092
sg16
I400
sg17
g13
sg18
g13
sg19
S'C:\\Windows\\Fonts\\ESSTIX9_.TTF'
p1093
sg21
g22
sbag7
(g8
g9
NtRp1094
(dp1095
g12
g13
sg14
S'Mufferaw'
p1096
sg16
I400
sg17
g13
sg18
g13
sg19
S'c:\\windows\\fonts\\mufferaw.ttf'
p1097
sg21
g22
sbag7
(g8
g9
NtRp1098
(dp1099
g12
g13
sg14
S'JasmineUPC'
p1100
sg16
I700
sg17
g13
sg18
g13
sg19
S'c:\\windows\\fonts\\upcjb.ttf'
p1101
sg21
g22
sbag7
(g8
g9
NtRp1102
(dp1103
g12
g50
sg14
S'DejaVu Serif'
p1104
sg16
I700
sg17
g13
sg18
g13
sg19
S'C:\\Windows\\Fonts\\DejaVuSerif-BoldItalic.ttf'
p1105
sg21
g22
sbag7
(g8
g9
NtRp1106
(dp1107
g12
g13
sg14
S'David'
p1108
sg16
I700
sg17
g13
sg18
g13
sg19
S'c:\\windows\\fonts\\davidbd.ttf'
p1109
sg21
g22
sbag7
(g8
g9
NtRp1110
(dp1111
g12
g13
sg14
S'Leelawadee'
p1112
sg16
I700
sg17
g13
sg18
g13
sg19
S'C:\\Windows\\Fonts\\leelawdb.ttf'
p1113
sg21
g22
sbag7
(g8
g9
NtRp1114
(dp1115
g12
g50
sg14
S'Constantia'
p1116
sg16
I400
sg17
g13
sg18
g13
sg19
S'C:\\Windows\\Fonts\\constani.ttf'
p1117
sg21
g22
sbag7
(g8
g9
NtRp1118
(dp1119
g12
g33
sg14
S'DejaVu Sans'
p1120
sg16
I700
sg17
g288
sg18
g13
sg19
S'c:\\windows\\fonts\\dejavusanscondensed-boldoblique.ttf'
p1121
sg21
g22
sbag7
(g8
g9
NtRp1122
(dp1123
g12
g13
sg14
S'Courier New'
p1124
sg16
I700
sg17
g13
sg18
g13
sg19
S'C:\\Windows\\Fonts\\courbd.ttf'
p1125
sg21
g22
sbag7
(g8
g9
NtRp1126
(dp1127
g12
g13
sg14
S'Book Antiqua'
p1128
sg16
I700
sg17
g13
sg18
g13
sg19
S'C:\\Windows\\Fonts\\ANTQUAB.TTF'
p1129
sg21
g22
sbag7
(g8
g9
NtRp1130
(dp1131
g12
g13
sg14
S'Constantia'
p1132
sg16
I400
sg17
g13
sg18
g13
sg19
S'c:\\windows\\fonts\\constan.ttf'
p1133
sg21
g22
sbag7
(g8
g9
NtRp1134
(dp1135
g12
g13
sg14
S'Helonia'
p1136
sg16
I400
sg17
g13
sg18
g13
sg19
S'C:\\Windows\\Fonts\\HEN_____.ttf'
p1137
sg21
g22
sbag7
(g8
g9
NtRp1138
(dp1139
g12
g13
sg14
S'Arnprior'
p1140
sg16
I400
sg17
g13
sg18
g13
sg19
S'c:\\windows\\fonts\\arnprior.ttf'
p1141
sg21
g22
sbag7
(g8
g9
NtRp1142
(dp1143
g12
g13
sg14
S'Simplified Arabic Fixed'
p1144
sg16
I400
sg17
g13
sg18
g13
sg19
S'c:\\windows\\fonts\\simpfxo.ttf'
p1145
sg21
g22
sbag7
(g8
g9
NtRp1146
(dp1147
g12
g13
sg14
S'Trebuchet MS'
p1148
sg16
I400
sg17
g13
sg18
g13
sg19
S'c:\\windows\\fonts\\trebuc.ttf'
p1149
sg21
g22
sbag7
(g8
g9
NtRp1150
(dp1151
g12
g13
sg14
S'Blue Highway'
p1152
sg16
I400
sg17
g13
sg18
g13
sg19
S'C:\\Windows\\Fonts\\BLUEHIGH.TTF'
p1153
sg21
g22
sbag7
(g8
g9
NtRp1154
(dp1155
g12
g13
sg14
S'SimHei'
p1156
sg16
I400
sg17
g13
sg18
g13
sg19
S'c:\\windows\\fonts\\simhei.ttf'
p1157
sg21
g22
sbag7
(g8
g9
NtRp1158
(dp1159
g12
g13
sg14
S'Lao UI'
p1160
sg16
I400
sg17
g13
sg18
g13
sg19
S'c:\\windows\\fonts\\laoui.ttf'
p1161
sg21
g22
sbag7
(g8
g9
NtRp1162
(dp1163
g12
g13
sg14
S'Lucida Console'
p1164
sg16
I400
sg17
g13
sg18
g13
sg19
S'c:\\windows\\fonts\\lucon.ttf'
p1165
sg21
g22
sbag7
(g8
g9
NtRp1166
(dp1167
g12
g13
sg14
S'Minya Nouvelle'
p1168
sg16
I400
sg17
g13
sg18
g13
sg19
S'c:\\windows\\fonts\\minyn___.ttf'
p1169
sg21
g22
sbag7
(g8
g9
NtRp1170
(dp1171
g12
g50
sg14
S'BrowalliaUPC'
p1172
sg16
I400
sg17
g13
sg18
g13
sg19
S'C:\\Windows\\Fonts\\browaui.ttf'
p1173
sg21
g22
sbag7
(g8
g9
NtRp1174
(dp1175
g12
g13
sg14
S'DaunPenh'
p1176
sg16
I400
sg17
g13
sg18
g13
sg19
S'c:\\windows\\fonts\\daunpenh.ttf'
p1177
sg21
g22
sbag7
(g8
g9
NtRp1178
(dp1179
g12
g13
sg14
S'Candara'
p1180
sg16
I700
sg17
g13
sg18
g13
sg19
S'C:\\Windows\\Fonts\\Candarab.ttf'
p1181
sg21
g22
sbag7
(g8
g9
NtRp1182
(dp1183
g12
g13
sg14
S'Blue Highway'
p1184
sg16
I400
sg17
g13
sg18
g13
sg19
S'c:\\windows\\fonts\\bluehigh.ttf'
p1185
sg21
g22
sbag7
(g8
g9
NtRp1186
(dp1187
g12
g13
sg14
S'Traditional Arabic'
p1188
sg16
I700
sg17
g13
sg18
g13
sg19
S'c:\\windows\\fonts\\tradbdo.ttf'
p1189
sg21
g22
sbag7
(g8
g9
NtRp1190
(dp1191
g12
g13
sg14
S'Blue Highway'
p1192
sg16
I700
sg17
g13
sg18
g13
sg19
S'C:\\Windows\\Fonts\\BLUEBOLD.TTF'
p1193
sg21
g22
sbag7
(g8
g9
NtRp1194
(dp1195
g12
g13
sg14
S'Arial'
p1196
sg16
I900
sg17
g13
sg18
g13
sg19
S'C:\\Windows\\Fonts\\ariblk.ttf'
p1197
sg21
g22
sbag7
(g8
g9
NtRp1198
(dp1199
g12
g13
sg14
S'Corbel'
p1200
sg16
I400
sg17
g13
sg18
g13
sg19
S'C:\\Windows\\Fonts\\corbel.ttf'
p1201
sg21
g22
sbag7
(g8
g9
NtRp1202
(dp1203
g12
g13
sg14
S'DejaVu Serif'
p1204
sg16
I700
sg17
g13
sg18
g13
sg19
S'c:\\windows\\fonts\\dejavuserif-bold.ttf'
p1205
sg21
g22
sbag7
(g8
g9
NtRp1206
(dp1207
g12
g13
sg14
S'Gautami'
p1208
sg16
I400
sg17
g13
sg18
g13
sg19
S'C:\\Windows\\Fonts\\gautami.ttf'
p1209
sg21
g22
sbag7
(g8
g9
NtRp1210
(dp1211
g12
g13
sg14
S'Microsoft Yi Baiti'
p1212
sg16
I400
sg17
g13
sg18
g13
sg19
S'C:\\Windows\\Fonts\\msyi.ttf'
p1213
sg21
g22
sbag7
(g8
g9
NtRp1214
(dp1215
g12
g50
sg14
S'DejaVu Serif'
p1216
sg16
I400
sg17
g288
sg18
g13
sg19
S'c:\\windows\\fonts\\dejavuserifcondensed-italic.ttf'
p1217
sg21
g22
sbag7
(g8
g9
NtRp1218
(dp1219
g12
g13
sg14
S'Levenim MT'
p1220
sg16
I400
sg17
g13
sg18
g13
sg19
S'C:\\Windows\\Fonts\\lvnm.ttf'
p1221
sg21
g22
sbag7
(g8
g9
NtRp1222
(dp1223
g12
g13
sg14
S'Bookman Old Style'
p1224
sg16
I700
sg17
g13
sg18
g13
sg19
S'C:\\Windows\\Fonts\\BOOKOSB.TTF'
p1225
sg21
g22
sbag7
(g8
g9
NtRp1226
(dp1227
g12
g13
sg14
S'DilleniaUPC'
p1228
sg16
I700
sg17
g13
sg18
g13
sg19
S'c:\\windows\\fonts\\upcdb.ttf'
p1229
sg21
g22
sbag7
(g8
g9
NtRp1230
(dp1231
g12
g13
sg14
S'DejaVu Serif'
p1232
sg16
I700
sg17
g288
sg18
g13
sg19
S'C:\\Windows\\Fonts\\DejaVuSerifCondensed-Bold.ttf'
p1233
sg21
g22
sbag7
(g8
g9
NtRp1234
(dp1235
g12
g13
sg14
S'Narkisim'
p1236
sg16
I400
sg17
g13
sg18
g13
sg19
S'C:\\Windows\\Fonts\\nrkis.ttf'
p1237
sg21
g22
sbag7
(g8
g9
NtRp1238
(dp1239
g12
g13
sg14
S'ESSTIXOne'
p1240
sg16
I400
sg17
g13
sg18
g13
sg19
S'c:\\windows\\fonts\\esstix1_.ttf'
p1241
sg21
g22
sbag7
(g8
g9
NtRp1242
(dp1243
g12
g13
sg14
S'Verdana'
p1244
sg16
I700
sg17
g13
sg18
g13
sg19
S'c:\\windows\\fonts\\verdanab.ttf'
p1245
sg21
g22
sbag7
(g8
g9
NtRp1246
(dp1247
g12
g13
sg14
S'Microsoft PhagsPa'
p1248
sg16
I700
sg17
g13
sg18
g13
sg19
S'C:\\Windows\\Fonts\\phagspab.ttf'
p1249
sg21
g22
sbag7
(g8
g9
NtRp1250
(dp1251
g12
g13
sg14
S'Sybil Green'
p1252
sg16
I400
sg17
g13
sg18
g13
sg19
S'c:\\windows\\fonts\\sybig___.ttf'
p1253
sg21
g22
sbag7
(g8
g9
NtRp1254
(dp1255
g12
g50
sg14
S'Courier New'
p1256
sg16
I700
sg17
g13
sg18
g13
sg19
S'c:\\windows\\fonts\\courbi.ttf'
p1257
sg21
g22
sbag7
(g8
g9
NtRp1258
(dp1259
g12
g13
sg14
S'Gentium Book Basic'
p1260
sg16
I400
sg17
g13
sg18
g13
sg19
S'C:\\Windows\\Fonts\\GenBkBasR.ttf'
p1261
sg21
g22
sbag7
(g8
g9
NtRp1262
(dp1263
g12
g13
sg14
S'Microsoft PhagsPa'
p1264
sg16
I400
sg17
g13
sg18
g13
sg19
S'c:\\windows\\fonts\\phagspa.ttf'
p1265
sg21
g22
sbag7
(g8
g9
NtRp1266
(dp1267
g12
g13
sg14
S'Wingdings 3'
p1268
sg16
I400
sg17
g13
sg18
g13
sg19
S'c:\\windows\\fonts\\wingdng3.ttf'
p1269
sg21
g22
sbag7
(g8
g9
NtRp1270
(dp1271
g12
g50
sg14
S'DejaVu Serif'
p1272
sg16
I700
sg17
g288
sg18
g13
sg19
S'C:\\Windows\\Fonts\\DejaVuSerifCondensed-BoldItalic.ttf'
p1273
sg21
g22
sbag7
(g8
g9
NtRp1274
(dp1275
g12
g13
sg14
S'Euclid Symbol'
p1276
sg16
I400
sg17
g13
sg18
g13
sg19
S'C:\\Windows\\Fonts\\eucsym.ttf'
p1277
sg21
g22
sbag7
(g8
g9
NtRp1278
(dp1279
g12
g50
sg14
S'DejaVu Serif'
p1280
sg16
I400
sg17
g13
sg18
g13
sg19
S'c:\\windows\\fonts\\dejavuserif-italic.ttf'
p1281
sg21
g22
sbag7
(g8
g9
NtRp1282
(dp1283
g12
g13
sg14
S'Juice ITC'
p1284
sg16
I400
sg17
g13
sg18
g13
sg19
S'C:\\Windows\\Fonts\\JUICE___.TTF'
p1285
sg21
g22
sbag7
(g8
g9
NtRp1286
(dp1287
g12
g13
sg14
S'Wickenden Cafe NDP'
p1288
sg16
I400
sg17
g13
sg18
g13
sg19
S'c:\\windows\\fonts\\wickcn__.ttf'
p1289
sg21
g22
sbag7
(g8
g9
NtRp1290
(dp1291
g12
g13
sg14
S'Shruti'
p1292
sg16
I400
sg17
g13
sg18
g13
sg19
S'C:\\Windows\\Fonts\\shruti.ttf'
p1293
sg21
g22
sbag7
(g8
g9
NtRp1294
(dp1295
g12
g13
sg14
S'OpenSymbol'
p1296
sg16
I400
sg17
g13
sg18
g13
sg19
S'C:\\Windows\\Fonts\\opens___.ttf'
p1297
sg21
g22
sbag7
(g8
g9
NtRp1298
(dp1299
g12
g13
sg14
S'Angsana New'
p1300
sg16
I400
sg17
g13
sg18
g13
sg19
S'C:\\Windows\\Fonts\\angsa.ttf'
p1301
sg21
g22
sbag7
(g8
g9
NtRp1302
(dp1303
g12
g13
sg14
S'Euclid Math Two'
p1304
sg16
I700
sg17
g13
sg18
g13
sg19
S'c:\\windows\\fonts\\eumat2b.ttf'
p1305
sg21
g22
sbag7
(g8
g9
NtRp1306
(dp1307
g12
g13
sg14
S'Angsana New'
p1308
sg16
I700
sg17
g13
sg18
g13
sg19
S'C:\\Windows\\Fonts\\angsab.ttf'
p1309
sg21
g22
sbag7
(g8
g9
NtRp1310
(dp1311
g12
g13
sg14
S'Arial'
p1312
sg16
I400
sg17
g288
sg18
g13
sg19
S'C:\\Windows\\Fonts\\ARIALN.TTF'
p1313
sg21
g22
sbag7
(g8
g9
NtRp1314
(dp1315
g12
g50
sg14
S'Lucida Handwriting'
p1316
sg16
I400
sg17
g13
sg18
g13
sg19
S'C:\\Windows\\Fonts\\LHANDW.TTF'
p1317
sg21
g22
sbag7
(g8
g9
NtRp1318
(dp1319
g12
g13
sg14
S'Segoe UI'
p1320
sg16
I700
sg17
g13
sg18
g13
sg19
S'C:\\Windows\\Fonts\\segoeuib.ttf'
p1321
sg21
g22
sbag7
(g8
g9
NtRp1322
(dp1323
g12
g13
sg14
S'Ebrima'
p1324
sg16
I400
sg17
g13
sg18
g13
sg19
S'C:\\Windows\\Fonts\\ebrima.ttf'
p1325
sg21
g22
sbag7
(g8
g9
NtRp1326
(dp1327
g12
g50
sg14
S'Candara'
p1328
sg16
I700
sg17
g13
sg18
g13
sg19
S'C:\\Windows\\Fonts\\Candaraz.ttf'
p1329
sg21
g22
sbag7
(g8
g9
NtRp1330
(dp1331
g12
g13
sg14
S'Book Antiqua'
p1332
sg16
I400
sg17
g13
sg18
g13
sg19
S'c:\\windows\\fonts\\bkant.ttf'
p1333
sg21
g22
sbag7
(g8
g9
NtRp1334
(dp1335
g12
g50
sg14
S'Consolas'
p1336
sg16
I400
sg17
g13
sg18
g13
sg19
S'C:\\Windows\\Fonts\\consolai.ttf'
p1337
sg21
g22
sbag7
(g8
g9
NtRp1338
(dp1339
g12
g13
sg14
S'AngsanaUPC'
p1340
sg16
I400
sg17
g13
sg18
g13
sg19
S'C:\\Windows\\Fonts\\angsau.ttf'
p1341
sg21
g22
sbag7
(g8
g9
NtRp1342
(dp1343
g12
g13
sg14
S'Symbol Tiger'
p1344
sg16
I400
sg17
g13
sg18
g13
sg19
S'c:\\windows\\fonts\\symbol tiger.ttf'
p1345
sg21
g22
sbag7
(g8
g9
NtRp1346
(dp1347
g12
g13
sg14
S'Garamond'
p1348
sg16
I700
sg17
g13
sg18
g13
sg19
S'c:\\windows\\fonts\\garabd.ttf'
p1349
sg21
g22
sbag7
(g8
g9
NtRp1350
(dp1351
g12
g13
sg14
S'Microsoft Uighur'
p1352
sg16
I400
sg17
g13
sg18
g13
sg19
S'C:\\Windows\\Fonts\\msuighur.ttf'
p1353
sg21
g22
sbag7
(g8
g9
NtRp1354
(dp1355
g12
g13
sg14
S'Berylium'
p1356
sg16
I400
sg17
g13
sg18
g13
sg19
S'c:\\windows\\fonts\\berylium.ttf'
p1357
sg21
g22
sbag7
(g8
g9
NtRp1358
(dp1359
g12
g50
sg14
S'Times New Roman'
p1360
sg16
I700
sg17
g13
sg18
g13
sg19
S'C:\\Windows\\Fonts\\timesbi.ttf'
p1361
sg21
g22
sbag7
(g8
g9
NtRp1362
(dp1363
g12
g50
sg14
S'Credit Valley'
p1364
sg16
I700
sg17
g13
sg18
g13
sg19
S'c:\\windows\\fonts\\creditvz.ttf'
p1365
sg21
g22
sbag7
(g8
g9
NtRp1366
(dp1367
g12
g33
sg14
S'DejaVu Sans Mono'
p1368
sg16
I700
sg17
g13
sg18
g13
sg19
S'c:\\windows\\fonts\\dejavusansmono-boldoblique.ttf'
p1369
sg21
g22
sbag7
(g8
g9
NtRp1370
(dp1371
g12
g13
sg14
S'Aparajita'
p1372
sg16
I700
sg17
g13
sg18
g13
sg19
S'C:\\Windows\\Fonts\\aparajb.ttf'
p1373
sg21
g22
sbag7
(g8
g9
NtRp1374
(dp1375
g12
g13
sg14
S'Arimo'
p1376
sg16
I700
sg17
g13
sg18
g13
sg19
S'C:\\Windows\\Fonts\\Arimo-Bold.ttf'
p1377
sg21
g22
sbag7
(g8
g9
NtRp1378
(dp1379
g12
g50
sg14
S'Arial'
p1380
sg16
I700
sg17
g13
sg18
g13
sg19
S'c:\\windows\\fonts\\arialbi.ttf'
p1381
sg21
g22
sbag7
(g8
g9
NtRp1382
(dp1383
g12
g13
sg14
S'Tandelle'
p1384
sg16
I400
sg17
g13
sg18
g13
sg19
S'C:\\Windows\\Fonts\\tandelle regular.ttf'
p1385
sg21
g22
sbag7
(g8
g9
NtRp1386
(dp1387
g12
g50
sg14
S'Trebuchet MS'
p1388
sg16
I400
sg17
g13
sg18
g13
sg19
S'c:\\windows\\fonts\\trebucit.ttf'
p1389
sg21
g22
sbag7
(g8
g9
NtRp1390
(dp1391
g12
g50
sg14
S'Bookman Old Style'
p1392
sg16
I400
sg17
g13
sg18
g13
sg19
S'C:\\Windows\\Fonts\\BOOKOSI.TTF'
p1393
sg21
g22
sbag7
(g8
g9
NtRp1394
(dp1395
g12
g50
sg14
S'Arimo'
p1396
sg16
I700
sg17
g13
sg18
g13
sg19
S'c:\\windows\\fonts\\arimo-bolditalic.ttf'
p1397
sg21
g22
sbag7
(g8
g9
NtRp1398
(dp1399
g12
g13
sg14
S'Blue Highway'
p1400
sg16
I700
sg17
g13
sg18
g13
sg19
S'c:\\windows\\fonts\\bluebold.ttf'
p1401
sg21
g22
sbag7
(g8
g9
NtRp1402
(dp1403
g12
g50
sg14
S'Minya Nouvelle'
p1404
sg16
I400
sg17
g13
sg18
g13
sg19
S'c:\\windows\\fonts\\minyni__.ttf'
p1405
sg21
g22
sbag7
(g8
g9
NtRp1406
(dp1407
g12
g13
sg14
S'Raavi'
p1408
sg16
I700
sg17
g13
sg18
g13
sg19
S'C:\\Windows\\Fonts\\raavib.ttf'
p1409
sg21
g22
sbag7
(g8
g9
NtRp1410
(dp1411
g12
g13
sg14
S'SimSun-ExtB'
p1412
sg16
I400
sg17
g13
sg18
g13
sg19
S'c:\\windows\\fonts\\simsunb.ttf'
p1413
sg21
g22
sbag7
(g8
g9
NtRp1414
(dp1415
g12
g13
sg14
S'MS Reference Sans Serif'
p1416
sg16
I400
sg17
g13
sg18
g13
sg19
S'C:\\Windows\\Fonts\\REFSAN.TTF'
p1417
sg21
g22
sbag7
(g8
g9
NtRp1418
(dp1419
g12
g13
sg14
S'Pupcat'
p1420
sg16
I400
sg17
g13
sg18
g13
sg19
S'C:\\Windows\\Fonts\\PUPCAT__.TTF'
p1421
sg21
g22
sbag7
(g8
g9
NtRp1422
(dp1423
g12
g13
sg14
S'Mistral'
p1424
sg16
I400
sg17
g13
sg18
g13
sg19
S'c:\\windows\\fonts\\mistral.ttf'
p1425
sg21
g22
sbag7
(g8
g9
NtRp1426
(dp1427
g12
g13
sg14
S'Gadugi'
p1428
sg16
I700
sg17
g13
sg18
g13
sg19
S'C:\\Windows\\Fonts\\GADUGIB.TTF'
p1429
sg21
g22
sbag7
(g8
g9
NtRp1430
(dp1431
g12
g13
sg14
S'Miriam'
p1432
sg16
I400
sg17
g13
sg18
g13
sg19
S'c:\\windows\\fonts\\mriam.ttf'
p1433
sg21
g22
sbag7
(g8
g9
NtRp1434
(dp1435
g12
g13
sg14
S'Microsoft Uighur'
p1436
sg16
I700
sg17
g13
sg18
g13
sg19
S'c:\\windows\\fonts\\msuighub.ttf'
p1437
sg21
g22
sbag7
(g8
g9
NtRp1438
(dp1439
g12
g13
sg14
S'Euclid Fraktur'
p1440
sg16
I400
sg17
g13
sg18
g13
sg19
S'C:\\Windows\\Fonts\\eufrak.ttf'
p1441
sg21
g22
sbag7
(g8
g9
NtRp1442
(dp1443
g12
g13
sg14
S'Comic Sans MS'
p1444
sg16
I700
sg17
g13
sg18
g13
sg19
S'c:\\windows\\fonts\\comicbd.ttf'
p1445
sg21
g22
sbag7
(g8
g9
NtRp1446
(dp1447
g12
g13
sg14
S'Candara'
p1448
sg16
I700
sg17
g13
sg18
g13
sg19
S'c:\\windows\\fonts\\candarab.ttf'
p1449
sg21
g22
sbag7
(g8
g9
NtRp1450
(dp1451
g12
g13
sg14
S'Tempus Sans ITC'
p1452
sg16
I400
sg17
g13
sg18
g13
sg19
S'c:\\windows\\fonts\\tempsitc.ttf'
p1453
sg21
g22
sbag7
(g8
g9
NtRp1454
(dp1455
g12
g50
sg14
S'Georgia'
p1456
sg16
I700
sg17
g13
sg18
g13
sg19
S'C:\\Windows\\Fonts\\georgiaz.ttf'
p1457
sg21
g22
sbag7
(g8
g9
NtRp1458
(dp1459
g12
g13
sg14
S'Bella Donna'
p1460
sg16
I400
sg17
g13
sg18
g13
sg19
S'c:\\windows\\fonts\\bella_donna.ttf'
p1461
sg21
g22
sbag7
(g8
g9
NtRp1462
(dp1463
g12
g13
sg14
S'Thames'
p1464
sg16
I400
sg17
g13
sg18
g13
sg19
S'C:\\Windows\\Fonts\\THR_____.ttf'
p1465
sg21
g22
sbag7
(g8
g9
NtRp1466
(dp1467
g12
g13
sg14
S'Microsoft JhengHei'
p1468
sg16
I400
sg17
g13
sg18
g13
sg19
S'C:\\Windows\\Fonts\\msjh.ttf'
p1469
sg21
g22
sbag7
(g8
g9
NtRp1470
(dp1471
g12
g50
sg14
S'EucrosiaUPC'
p1472
sg16
I700
sg17
g13
sg18
g13
sg19
S'c:\\windows\\fonts\\upcebi.ttf'
p1473
sg21
g22
sbag7
(g8
g9
NtRp1474
(dp1475
g12
g50
sg14
S'Calibri'
p1476
sg16
I200
sg17
g13
sg18
g13
sg19
S'c:\\windows\\fonts\\calibrili.ttf'
p1477
sg21
g22
sbag7
(g8
g9
NtRp1478
(dp1479
g12
g13
sg14
S'DejaVu Sans'
p1480
sg16
I400
sg17
g13
sg18
g13
sg19
S'C:\\Windows\\Fonts\\DejaVuSans.ttf'
p1481
sg21
g22
sbag7
(g8
g9
NtRp1482
(dp1483
g12
g13
sg14
S'Palatino Linotype'
p1484
sg16
I700
sg17
g13
sg18
g13
sg19
S'c:\\windows\\fonts\\palab.ttf'
p1485
sg21
g22
sbag7
(g8
g9
NtRp1486
(dp1487
g12
g13
sg14
S'ESSTIXNine'
p1488
sg16
I400
sg17
g13
sg18
g13
sg19
S'c:\\windows\\fonts\\esstix9_.ttf'
p1489
sg21
g22
sbag7
(g8
g9
NtRp1490
(dp1491
g12
g50
sg14
S'Credit Valley'
p1492
sg16
I700
sg17
g13
sg18
g13
sg19
S'C:\\Windows\\Fonts\\CREDITVZ.TTF'
p1493
sg21
g22
sbag7
(g8
g9
NtRp1494
(dp1495
g12
g13
sg14
S'Teen Light'
p1496
sg16
I200
sg17
g13
sg18
g13
sg19
S'C:\\Windows\\Fonts\\TEENLITE.TTF'
p1497
sg21
g22
sbag7
(g8
g9
NtRp1498
(dp1499
g12
g50
sg14
S'Candara'
p1500
sg16
I400
sg17
g13
sg18
g13
sg19
S'c:\\windows\\fonts\\candarai.ttf'
p1501
sg21
g22
sbag7
(g8
g9
NtRp1502
(dp1503
g12
g13
sg14
S'Segoe Script'
p1504
sg16
I400
sg17
g13
sg18
g13
sg19
S'c:\\windows\\fonts\\segoesc.ttf'
p1505
sg21
g22
sbag7
(g8
g9
NtRp1506
(dp1507
g12
g13
sg14
S'DejaVu Sans Mono'
p1508
sg16
I700
sg17
g13
sg18
g13
sg19
S'C:\\Windows\\Fonts\\DejaVuSansMono-Bold.ttf'
p1509
sg21
g22
sbag7
(g8
g9
NtRp1510
(dp1511
g12
g13
sg14
S'Aparajita'
p1512
sg16
I400
sg17
g13
sg18
g13
sg19
S'c:\\windows\\fonts\\aparaj.ttf'
p1513
sg21
g22
sbag7
(g8
g9
NtRp1514
(dp1515
g12
g13
sg14
S'Minya Nouvelle'
p1516
sg16
I400
sg17
g13
sg18
g13
sg19
S'C:\\Windows\\Fonts\\MINYN___.TTF'
p1517
sg21
g22
sbag7
(g8
g9
NtRp1518
(dp1519
g12
g13
sg14
S'Euclid Extra'
p1520
sg16
I700
sg17
g13
sg18
g13
sg19
S'c:\\windows\\fonts\\euextrab.ttf'
p1521
sg21
g22
sbag7
(g8
g9
NtRp1522
(dp1523
g12
g13
sg14
S'BrowalliaUPC'
p1524
sg16
I700
sg17
g13
sg18
g13
sg19
S'c:\\windows\\fonts\\browaub.ttf'
p1525
sg21
g22
sbag7
(g8
g9
NtRp1526
(dp1527
g12
g13
sg14
S'Stereofidelic'
p1528
sg16
I400
sg17
g13
sg18
g13
sg19
S'C:\\Windows\\Fonts\\STEREOFI.TTF'
p1529
sg21
g22
sbag7
(g8
g9
NtRp1530
(dp1531
g12
g13
sg14
S'Bookman Old Style'
p1532
sg16
I400
sg17
g13
sg18
g13
sg19
S'C:\\Windows\\Fonts\\BOOKOS.TTF'
p1533
sg21
g22
sbag7
(g8
g9
NtRp1534
(dp1535
g12
g33
sg14
S'DejaVu Sans'
p1536
sg16
I400
sg17
g288
sg18
g13
sg19
S'c:\\windows\\fonts\\dejavusanscondensed-oblique.ttf'
p1537
sg21
g22
sbag7
(g8
g9
NtRp1538
(dp1539
g12
g13
sg14
S'Wickenden Cafe NDP'
p1540
sg16
I400
sg17
g13
sg18
g13
sg19
S'C:\\Windows\\Fonts\\WICKCN__.TTF'
p1541
sg21
g22
sbag7
(g8
g9
NtRp1542
(dp1543
g12
g50
sg14
S'Times New Roman'
p1544
sg16
I500
sg17
g13
sg18
g13
sg19
S'C:\\Windows\\Fonts\\timesi.ttf'
p1545
sg21
g22
sbag7
(g8
g9
NtRp1546
(dp1547
g12
g50
sg14
S'Century Gothic'
p1548
sg16
I700
sg17
g13
sg18
g13
sg19
S'c:\\windows\\fonts\\gothicbi.ttf'
p1549
sg21
g22
sbag7
(g8
g9
NtRp1550
(dp1551
g12
g13
sg14
S'Gabriola'
p1552
sg16
I400
sg17
g13
sg18
g13
sg19
S'C:\\Windows\\Fonts\\Gabriola.ttf'
p1553
sg21
g22
sbag7
(g8
g9
NtRp1554
(dp1555
g12
g13
sg14
S'Neuropol'
p1556
sg16
I400
sg17
g13
sg18
g13
sg19
S'c:\\windows\\fonts\\neuropol.ttf'
p1557
sg21
g22
sbag7
(g8
g9
NtRp1558
(dp1559
g12
g13
sg14
S'Iskoola Pota'
p1560
sg16
I400
sg17
g13
sg18
g13
sg19
S'c:\\windows\\fonts\\iskpota.ttf'
p1561
sg21
g22
sbag7
(g8
g9
NtRp1562
(dp1563
g12
g13
sg14
S'SymbolPi'
p1564
sg16
I400
sg17
g13
sg18
g13
sg19
S'C:\\Windows\\Fonts\\SYP_____.ttf'
p1565
sg21
g22
sbag7
(g8
g9
NtRp1566
(dp1567
g12
g50
sg14
S'Candara'
p1568
sg16
I400
sg17
g13
sg18
g13
sg19
S'C:\\Windows\\Fonts\\Candarai.ttf'
p1569
sg21
g22
sbag7
(g8
g9
NtRp1570
(dp1571
g12
g13
sg14
S'Burnstown Dam'
p1572
sg16
I400
sg17
g13
sg18
g13
sg19
S'c:\\windows\\fonts\\burnstow.ttf'
p1573
sg21
g22
sbag7
(g8
g9
NtRp1574
(dp1575
g12
g50
sg14
S'Garamond'
p1576
sg16
I400
sg17
g13
sg18
g13
sg19
S'c:\\windows\\fonts\\garait.ttf'
p1577
sg21
g22
sbag7
(g8
g9
NtRp1578
(dp1579
g12
g13
sg14
S'ESSTIXThree'
p1580
sg16
I400
sg17
g13
sg18
g13
sg19
S'c:\\windows\\fonts\\esstix3_.ttf'
p1581
sg21
g22
sbag7
(g8
g9
NtRp1582
(dp1583
g12
g13
sg14
S'Nirmala UI'
p1584
sg16
I700
sg17
g13
sg18
g13
sg19
S'c:\\windows\\fonts\\nirmalab.ttf'
p1585
sg21
g22
sbag7
(g8
g9
NtRp1586
(dp1587
g12
g13
sg14
S'Symbol Tiger Expert'
p1588
sg16
I400
sg17
g13
sg18
g13
sg19
S'c:\\windows\\fonts\\symbol tiger expert.ttf'
p1589
sg21
g22
sbag7
(g8
g9
NtRp1590
(dp1591
g12
g13
sg14
S'Century'
p1592
sg16
I400
sg17
g13
sg18
g13
sg19
S'c:\\windows\\fonts\\century.ttf'
p1593
sg21
g22
sbag7
(g8
g9
NtRp1594
(dp1595
g12
g50
sg14
S'Tandelle'
p1596
sg16
I400
sg17
g13
sg18
g13
sg19
S'C:\\Windows\\Fonts\\tandelle italic.ttf'
p1597
sg21
g22
sbag7
(g8
g9
NtRp1598
(dp1599
g12
g13
sg14
S'Ligurino'
p1600
sg16
I400
sg17
g13
sg18
g13
sg19
S'C:\\Windows\\Fonts\\ligurino.ttf'
p1601
sg21
g22
sbag7
(g8
g9
NtRp1602
(dp1603
g12
g13
sg14
S'ESSTIXThirteen'
p1604
sg16
I400
sg17
g13
sg18
g13
sg19
S'c:\\windows\\fonts\\esstix13.ttf'
p1605
sg21
g22
sbag7
(g8
g9
NtRp1606
(dp1607
g12
g13
sg14
S'Boopee'
p1608
sg16
I400
sg17
g13
sg18
g13
sg19
S'c:\\windows\\fonts\\boopee_regular.ttf'
p1609
sg21
g22
sbag7
(g8
g9
NtRp1610
(dp1611
g12
g13
sg14
S'Kalinga'
p1612
sg16
I400
sg17
g13
sg18
g13
sg19
S'C:\\Windows\\Fonts\\kalinga.ttf'
p1613
sg21
g22
sbag7
(g8
g9
NtRp1614
(dp1615
g12
g13
sg14
S'Blue Highway D Type'
p1616
sg16
I400
sg17
g13
sg18
g13
sg19
S'C:\\Windows\\Fonts\\BLUEHIGD.TTF'
p1617
sg21
g22
sbag7
(g8
g9
NtRp1618
(dp1619
g12
g13
sg14
S'Arial'
p1620
sg16
I700
sg17
g288
sg18
g13
sg19
S'c:\\windows\\fonts\\arialnb.ttf'
p1621
sg21
g22
sbag7
(g8
g9
NtRp1622
(dp1623
g12
g13
sg14
S'Gentium Basic'
p1624
sg16
I400
sg17
g13
sg18
g13
sg19
S'C:\\Windows\\Fonts\\GenBasR.ttf'
p1625
sg21
g22
sbag7
(g8
g9
NtRp1626
(dp1627
g12
g13
sg14
S'MS Outlook'
p1628
sg16
I400
sg17
g13
sg18
g13
sg19
S'c:\\windows\\fonts\\outlook.ttf'
p1629
sg21
g22
sbag7
(g8
g9
NtRp1630
(dp1631
g12
g13
sg14
S'Iskoola Pota'
p1632
sg16
I700
sg17
g13
sg18
g13
sg19
S'C:\\Windows\\Fonts\\iskpotab.ttf'
p1633
sg21
g22
sbag7
(g8
g9
NtRp1634
(dp1635
g12
g13
sg14
S'Candara'
p1636
sg16
I400
sg17
g13
sg18
g13
sg19
S'c:\\windows\\fonts\\candara.ttf'
p1637
sg21
g22
sbag7
(g8
g9
NtRp1638
(dp1639
g12
g13
sg14
S'MV Boli'
p1640
sg16
I400
sg17
g13
sg18
g13
sg19
S'C:\\Windows\\Fonts\\mvboli.ttf'
p1641
sg21
g22
sbag7
(g8
g9
NtRp1642
(dp1643
g12
g13
sg14
S'Vijaya'
p1644
sg16
I400
sg17
g13
sg18
g13
sg19
S'c:\\windows\\fonts\\vijaya.ttf'
p1645
sg21
g22
sbag7
(g8
g9
NtRp1646
(dp1647
g12
g13
sg14
S'Arial'
p1648
sg16
I400
sg17
g288
sg18
g13
sg19
S'c:\\windows\\fonts\\arialn.ttf'
p1649
sg21
g22
sbag7
(g8
g9
NtRp1650
(dp1651
g12
g13
sg14
S'ESSTIXFour'
p1652
sg16
I400
sg17
g13
sg18
g13
sg19
S'C:\\Windows\\Fonts\\ESSTIX4_.TTF'
p1653
sg21
g22
sbag7
(g8
g9
NtRp1654
(dp1655
g12
g13
sg14
S'Blue Highway Linocut'
p1656
sg16
I400
sg17
g13
sg18
g13
sg19
S'C:\\Windows\\Fonts\\BLUEHIGL.TTF'
p1657
sg21
g22
sbag7
(g8
g9
NtRp1658
(dp1659
g12
g50
sg14
S'Cordia New'
p1660
sg16
I400
sg17
g13
sg18
g13
sg19
S'C:\\Windows\\Fonts\\cordiai.ttf'
p1661
sg21
g22
sbag7
(g8
g9
NtRp1662
(dp1663
g12
g13
sg14
S'Segoe UI'
p1664
sg16
I400
sg17
g13
sg18
g13
sg19
S'C:\\Windows\\Fonts\\segoeuil.ttf'
p1665
sg21
g22
sbag7
(g8
g9
NtRp1666
(dp1667
g12
g13
sg14
S'Tunga'
p1668
sg16
I700
sg17
g13
sg18
g13
sg19
S'C:\\Windows\\Fonts\\tungab.ttf'
p1669
sg21
g22
sbag7
(g8
g9
NtRp1670
(dp1671
g12
g50
sg14
S'Minya Nouvelle'
p1672
sg16
I700
sg17
g13
sg18
g13
sg19
S'c:\\windows\\fonts\\minynbi_.ttf'
p1673
sg21
g22
sbag7
(g8
g9
NtRp1674
(dp1675
g12
g13
sg14
S'Sakkal Majalla'
p1676
sg16
I700
sg17
g13
sg18
g13
sg19
S'C:\\Windows\\Fonts\\majallab.ttf'
p1677
sg21
g22
sbag7
(g8
g9
NtRp1678
(dp1679
g12
g13
sg14
S'Symbol Tiger Expert'
p1680
sg16
I400
sg17
g13
sg18
g13
sg19
S'C:\\Windows\\Fonts\\Symbol Tiger Expert.ttf'
p1681
sg21
g22
sbag7
(g8
g9
NtRp1682
(dp1683
g12
g50
sg14
S'Wickenden Cafe NDP'
p1684
sg16
I700
sg17
g13
sg18
g13
sg19
S'c:\\windows\\fonts\\wickcnbi.ttf'
p1685
sg21
g22
sbag7
(g8
g9
NtRp1686
(dp1687
g12
g50
sg14
S'Teen'
p1688
sg16
I700
sg17
g13
sg18
g13
sg19
S'c:\\windows\\fonts\\teenbdit.ttf'
p1689
sg21
g22
sbag7
(g8
g9
NtRp1690
(dp1691
g12
g13
sg14
S'ESSTIXSixteen'
p1692
sg16
I400
sg17
g13
sg18
g13
sg19
S'c:\\windows\\fonts\\esstix16.ttf'
p1693
sg21
g22
sbag7
(g8
g9
NtRp1694
(dp1695
g12
g13
sg14
S'JasmineUPC'
p1696
sg16
I400
sg17
g13
sg18
g13
sg19
S'c:\\windows\\fonts\\upcjl.ttf'
p1697
sg21
g22
sbag7
(g8
g9
NtRp1698
(dp1699
g12
g13
sg14
S'Heavy Heap'
p1700
sg16
I800
sg17
g13
sg18
g13
sg19
S'C:\\Windows\\Fonts\\HeavyHeap.ttf'
p1701
sg21
g22
sbag7
(g8
g9
NtRp1702
(dp1703
g12
g13
sg14
S'Teen'
p1704
sg16
I400
sg17
g13
sg18
g13
sg19
S'C:\\Windows\\Fonts\\TEEN____.TTF'
p1705
sg21
g22
sbag7
(g8
g9
NtRp1706
(dp1707
g12
g13
sg14
S'Tiger'
p1708
sg16
I400
sg17
g13
sg18
g13
sg19
S'c:\\windows\\fonts\\tiger.ttf'
p1709
sg21
g22
sbag7
(g8
g9
NtRp1710
(dp1711
g12
g13
sg14
S'Shonar Bangla'
p1712
sg16
I400
sg17
g13
sg18
g13
sg19
S'C:\\Windows\\Fonts\\Shonar.ttf'
p1713
sg21
g22
sbag7
(g8
g9
NtRp1714
(dp1715
g12
g13
sg14
S'Gentium Basic'
p1716
sg16
I400
sg17
g13
sg18
g13
sg19
S'c:\\windows\\fonts\\genbasr.ttf'
p1717
sg21
g22
sbag7
(g8
g9
NtRp1718
(dp1719
g12
g13
sg14
S'Bookshelf Symbol 7'
p1720
sg16
I400
sg17
g13
sg18
g13
sg19
S'C:\\Windows\\Fonts\\BSSYM7.TTF'
p1721
sg21
g22
sbag7
(g8
g9
NtRp1722
(dp1723
g12
g13
sg14
S'Baveuse'
p1724
sg16
I400
sg17
g13
sg18
g13
sg19
S'c:\\windows\\fonts\\baveuse.ttf'
p1725
sg21
g22
sbag7
(g8
g9
NtRp1726
(dp1727
g12
g50
sg14
S'Corbel'
p1728
sg16
I700
sg17
g13
sg18
g13
sg19
S'C:\\Windows\\Fonts\\corbelz.ttf'
p1729
sg21
g22
sbag7
(g8
g9
NtRp1730
(dp1731
g12
g13
sg14
S'ESSTIXFourteen'
p1732
sg16
I400
sg17
g13
sg18
g13
sg19
S'C:\\Windows\\Fonts\\ESSTIX14.TTF'
p1733
sg21
g22
sbag7
(g8
g9
NtRp1734
(dp1735
g12
g13
sg14
S'Segoe Script'
p1736
sg16
I700
sg17
g13
sg18
g13
sg19
S'c:\\windows\\fonts\\segoescb.ttf'
p1737
sg21
g22
sbag7
(g8
g9
NtRp1738
(dp1739
g12
g50
sg14
S'DejaVu Serif'
p1740
sg16
I700
sg17
g288
sg18
g13
sg19
S'c:\\windows\\fonts\\dejavuserifcondensed-bolditalic.ttf'
p1741
sg21
g22
sbag7
(g8
g9
NtRp1742
(dp1743
g12
g50
sg14
S'Thames'
p1744
sg16
I700
sg17
g13
sg18
g13
sg19
S'C:\\Windows\\Fonts\\THBI____.ttf'
p1745
sg21
g22
sbag7
(g8
g9
NtRp1746
(dp1747
g12
g13
sg14
S'Comic Sans MS'
p1748
sg16
I400
sg17
g13
sg18
g13
sg19
S'C:\\Windows\\Fonts\\comic.ttf'
p1749
sg21
g22
sbag7
(g8
g9
NtRp1750
(dp1751
g12
g50
sg14
S'Courant'
p1752
sg16
I700
sg17
g13
sg18
g13
sg19
S'C:\\Windows\\Fonts\\COBO____.ttf'
p1753
sg21
g22
sbag7
(g8
g9
NtRp1754
(dp1755
g12
g13
sg14
S'Juice ITC'
p1756
sg16
I400
sg17
g13
sg18
g13
sg19
S'c:\\windows\\fonts\\juice___.ttf'
p1757
sg21
g22
sbag7
(g8
g9
NtRp1758
(dp1759
g12
g13
sg14
S'French Script MT'
p1760
sg16
I400
sg17
g13
sg18
g13
sg19
S'C:\\Windows\\Fonts\\FRSCRIPT.TTF'
p1761
sg21
g22
sbag7
(g8
g9
NtRp1762
(dp1763
g12
g13
sg14
S'Mistral'
p1764
sg16
I400
sg17
g13
sg18
g13
sg19
S'C:\\Windows\\Fonts\\MISTRAL.TTF'
p1765
sg21
g22
sbag7
(g8
g9
NtRp1766
(dp1767
g12
g50
sg14
S'Courant'
p1768
sg16
I400
sg17
g13
sg18
g13
sg19
S'c:\\windows\\fonts\\coo_____.ttf'
p1769
sg21
g22
sbag7
(g8
g9
NtRp1770
(dp1771
g12
g13
sg14
S'Planet Benson 2'
p1772
sg16
I400
sg17
g13
sg18
g13
sg19
S'c:\\windows\\fonts\\planetbe.ttf'
p1773
sg21
g22
sbag7
(g8
g9
NtRp1774
(dp1775
g12
g50
sg14
S'Minya Nouvelle'
p1776
sg16
I400
sg17
g13
sg18
g13
sg19
S'C:\\Windows\\Fonts\\MINYNI__.TTF'
p1777
sg21
g22
sbag7
(g8
g9
NtRp1778
(dp1779
g12
g13
sg14
S'Garamond'
p1780
sg16
I700
sg17
g13
sg18
g13
sg19
S'C:\\Windows\\Fonts\\GARABD.TTF'
p1781
sg21
g22
sbag7
(g8
g9
NtRp1782
(dp1783
g12
g13
sg14
S'Times New Roman'
p1784
sg16
I700
sg17
g13
sg18
g13
sg19
S'C:\\Windows\\Fonts\\timesbd.ttf'
p1785
sg21
g22
sbag7
(g8
g9
NtRp1786
(dp1787
g12
g13
sg14
S'DejaVu Sans Mono'
p1788
sg16
I400
sg17
g13
sg18
g13
sg19
S'c:\\windows\\fonts\\dejavusansmono.ttf'
p1789
sg21
g22
sbag7
(g8
g9
NtRp1790
(dp1791
g12
g13
sg14
S'Book Antiqua'
p1792
sg16
I700
sg17
g13
sg18
g13
sg19
S'c:\\windows\\fonts\\antquab.ttf'
p1793
sg21
g22
sbag7
(g8
g9
NtRp1794
(dp1795
g12
g13
sg14
S'Freestyle Script'
p1796
sg16
I400
sg17
g13
sg18
g13
sg19
S'c:\\windows\\fonts\\freescpt.ttf'
p1797
sg21
g22
sbag7
(g8
g9
NtRp1798
(dp1799
g12
g13
sg14
S'ESSTIXSeventeen'
p1800
sg16
I400
sg17
g13
sg18
g13
sg19
S'C:\\Windows\\Fonts\\ESSTIX17.TTF'
p1801
sg21
g22
sbag7
(g8
g9
NtRp1802
(dp1803
g12
g13
sg14
S'Biondi'
p1804
sg16
I200
sg17
g13
sg18
g13
sg19
S'c:\\windows\\fonts\\biondi light.ttf'
p1805
sg21
g22
sbag7
(g8
g9
NtRp1806
(dp1807
g12
g50
sg14
S'Credit Valley'
p1808
sg16
I400
sg17
g13
sg18
g13
sg19
S'C:\\Windows\\Fonts\\CREDITVI.TTF'
p1809
sg21
g22
sbag7
(g8
g9
NtRp1810
(dp1811
g12
g50
sg14
S'Utsaah'
p1812
sg16
I700
sg17
g13
sg18
g13
sg19
S'C:\\Windows\\Fonts\\utsaahbi.ttf'
p1813
sg21
g22
sbag7
(g8
g9
NtRp1814
(dp1815
g12
g50
sg14
S'Helonia'
p1816
sg16
I700
sg17
g13
sg18
g13
sg19
S'C:\\Windows\\Fonts\\HEBO____.ttf'
p1817
sg21
g22
sbag7
(g8
g9
NtRp1818
(dp1819
g12
g50
sg14
S'LilyUPC'
p1820
sg16
I700
sg17
g13
sg18
g13
sg19
S'c:\\windows\\fonts\\upclbi.ttf'
p1821
sg21
g22
sbag7
(g8
g9
NtRp1822
(dp1823
g12
g13
sg14
S'FrankRuehl'
p1824
sg16
I400
sg17
g13
sg18
g13
sg19
S'c:\\windows\\fonts\\frank.ttf'
p1825
sg21
g22
sbag7
(g8
g9
NtRp1826
(dp1827
g12
g50
sg14
S'Byington'
p1828
sg16
I400
sg17
g13
sg18
g13
sg19
S'C:\\Windows\\Fonts\\byington_italic.ttf'
p1829
sg21
g22
sbag7
(g8
g9
NtRp1830
(dp1831
g12
g13
sg14
S'Huxtable'
p1832
sg16
I400
sg17
g13
sg18
g13
sg19
S'C:\\Windows\\Fonts\\huxtable.ttf'
p1833
sg21
g22
sbag7
(g8
g9
NtRp1834
(dp1835
g12
g13
sg14
S'Papyrus'
p1836
sg16
I400
sg17
g13
sg18
g13
sg19
S'c:\\windows\\fonts\\papyrus.ttf'
p1837
sg21
g22
sbag7
(g8
g9
NtRp1838
(dp1839
g12
g13
sg14
S'Tandelle'
p1840
sg16
I700
sg17
g13
sg18
g13
sg19
S'C:\\Windows\\Fonts\\tandelle bold.ttf'
p1841
sg21
g22
sbag7
(g8
g9
NtRp1842
(dp1843
g12
g50
sg14
S'Teen Light'
p1844
sg16
I200
sg17
g13
sg18
g13
sg19
S'c:\\windows\\fonts\\teenlita.ttf'
p1845
sg21
g22
sbag7
(g8
g9
NtRp1846
(dp1847
g12
g13
sg14
S'Velvenda Cooler'
p1848
sg16
I400
sg17
g13
sg18
g13
sg19
S'c:\\windows\\fonts\\velvendc.ttf'
p1849
sg21
g22
sbag7
(g8
g9
NtRp1850
(dp1851
g12
g13
sg14
S'Microsoft New Tai Lue'
p1852
sg16
I400
sg17
g13
sg18
g13
sg19
S'C:\\Windows\\Fonts\\ntailu.ttf'
p1853
sg21
g22
sbag7
(g8
g9
NtRp1854
(dp1855
g12
g13
sg14
S'Earwig Factory'
p1856
sg16
I400
sg17
g13
sg18
g13
sg19
S'C:\\Windows\\Fonts\\EARWIGFA.TTF'
p1857
sg21
g22
sbag7
(g8
g9
NtRp1858
(dp1859
g12
g13
sg14
S'DejaVu Sans'
p1860
sg16
I700
sg17
g13
sg18
g13
sg19
S'C:\\Windows\\Fonts\\DejaVuSans-Bold.ttf'
p1861
sg21
g22
sbag7
(g8
g9
NtRp1862
(dp1863
g12
g50
sg14
S'Consolas'
p1864
sg16
I700
sg17
g13
sg18
g13
sg19
S'c:\\windows\\fonts\\consolaz.ttf'
p1865
sg21
g22
sbag7
(g8
g9
NtRp1866
(dp1867
g12
g50
sg14
S'EucrosiaUPC'
p1868
sg16
I400
sg17
g13
sg18
g13
sg19
S'c:\\windows\\fonts\\upcei.ttf'
p1869
sg21
g22
sbag7
(g8
g9
NtRp1870
(dp1871
g12
g13
sg14
S'KodchiangUPC'
p1872
sg16
I700
sg17
g13
sg18
g13
sg19
S'c:\\windows\\fonts\\upckb.ttf'
p1873
sg21
g22
sbag7
(g8
g9
NtRp1874
(dp1875
g12
g13
sg14
S'Vani'
p1876
sg16
I700
sg17
g13
sg18
g13
sg19
S'C:\\Windows\\Fonts\\Vanib.ttf'
p1877
sg21
g22
sbag7
(g8
g9
NtRp1878
(dp1879
g12
g13
sg14
S'Tempus Sans ITC'
p1880
sg16
I400
sg17
g13
sg18
g13
sg19
S'C:\\Windows\\Fonts\\TEMPSITC.TTF'
p1881
sg21
g22
sbag7
(g8
g9
NtRp1882
(dp1883
g12
g50
sg14
S'Corbel'
p1884
sg16
I400
sg17
g13
sg18
g13
sg19
S'C:\\Windows\\Fonts\\corbeli.ttf'
p1885
sg21
g22
sbag7
(g8
g9
NtRp1886
(dp1887
g12
g50
sg14
S'DejaVu Serif'
p1888
sg16
I700
sg17
g13
sg18
g13
sg19
S'c:\\windows\\fonts\\dejavuserif-bolditalic.ttf'
p1889
sg21
g22
sbag7
(g8
g9
NtRp1890
(dp1891
g12
g13
sg14
S'Sybil Green'
p1892
sg16
I400
sg17
g13
sg18
g13
sg19
S'C:\\Windows\\Fonts\\SYBIG___.TTF'
p1893
sg21
g22
sbag7
(g8
g9
NtRp1894
(dp1895
g12
g13
sg14
S'Gisha'
p1896
sg16
I700
sg17
g13
sg18
g13
sg19
S'C:\\Windows\\Fonts\\gishabd.ttf'
p1897
sg21
g22
sbag7
(g8
g9
NtRp1898
(dp1899
g12
g50
sg14
S'Arimo'
p1900
sg16
I700
sg17
g13
sg18
g13
sg19
S'C:\\Windows\\Fonts\\Arimo-BoldItalic.ttf'
p1901
sg21
g22
sbag7
(g8
g9
NtRp1902
(dp1903
g12
g13
sg14
S'ESSTIXEleven'
p1904
sg16
I400
sg17
g13
sg18
g13
sg19
S'c:\\windows\\fonts\\esstix11.ttf'
p1905
sg21
g22
sbag7
(g8
g9
NtRp1906
(dp1907
g12
g13
sg14
S'Nyala'
p1908
sg16
I400
sg17
g13
sg18
g13
sg19
S'c:\\windows\\fonts\\nyala.ttf'
p1909
sg21
g22
sbag7
(g8
g9
NtRp1910
(dp1911
g12
g50
sg14
S'Thames'
p1912
sg16
I400
sg17
g13
sg18
g13
sg19
S'C:\\Windows\\Fonts\\THI_____.ttf'
p1913
sg21
g22
sbag7
(g8
g9
NtRp1914
(dp1915
g12
g13
sg14
S'DejaVu Sans'
p1916
sg16
I400
sg17
g288
sg18
g13
sg19
S'C:\\Windows\\Fonts\\DejaVuSansCondensed.ttf'
p1917
sg21
g22
sbag7
(g8
g9
NtRp1918
(dp1919
g12
g13
sg14
S'Century Gothic'
p1920
sg16
I700
sg17
g13
sg18
g13
sg19
S'C:\\Windows\\Fonts\\GOTHICB.TTF'
p1921
sg21
g22
sbag7
(g8
g9
NtRp1922
(dp1923
g12
g50
sg14
S'Gentium Basic'
p1924
sg16
I400
sg17
g13
sg18
g13
sg19
S'c:\\windows\\fonts\\genbasi.ttf'
p1925
sg21
g22
sbag7
(g8
g9
NtRp1926
(dp1927
g12
g13
sg14
S'Georgia'
p1928
sg16
I400
sg17
g13
sg18
g13
sg19
S'C:\\Windows\\Fonts\\georgia.ttf'
p1929
sg21
g22
sbag7
(g8
g9
NtRp1930
(dp1931
g12
g50
sg14
S'Bookman Old Style'
p1932
sg16
I700
sg17
g13
sg18
g13
sg19
S'c:\\windows\\fonts\\bookosbi.ttf'
p1933
sg21
g22
sbag7
(g8
g9
NtRp1934
(dp1935
g12
g13
sg14
S'Courant'
p1936
sg16
I400
sg17
g13
sg18
g13
sg19
S'C:\\Windows\\Fonts\\CON_____.ttf'
p1937
sg21
g22
sbag7
(g8
g9
NtRp1938
(dp1939
g12
g13
sg14
S'Euclid Fraktur'
p1940
sg16
I700
sg17
g13
sg18
g13
sg19
S'C:\\Windows\\Fonts\\eufrakb.ttf'
p1941
sg21
g22
sbag7
(g8
g9
NtRp1942
(dp1943
g12
g13
sg14
S'AngsanaUPC'
p1944
sg16
I700
sg17
g13
sg18
g13
sg19
S'C:\\Windows\\Fonts\\angsaub.ttf'
p1945
sg21
g22
sbag7
(g8
g9
NtRp1946
(dp1947
g12
g13
sg14
S'Nirmala UI'
p1948
sg16
I700
sg17
g13
sg18
g13
sg19
S'C:\\Windows\\Fonts\\NIRMALAB.TTF'
p1949
sg21
g22
sbag7
(g8
g9
NtRp1950
(dp1951
g12
g13
sg14
S'Lao UI'
p1952
sg16
I700
sg17
g13
sg18
g13
sg19
S'C:\\Windows\\Fonts\\LaoUIb.ttf'
p1953
sg21
g22
sbag7
(g8
g9
NtRp1954
(dp1955
g12
g13
sg14
S'Cordia New'
p1956
sg16
I400
sg17
g13
sg18
g13
sg19
S'C:\\Windows\\Fonts\\cordia.ttf'
p1957
sg21
g22
sbag7
(g8
g9
NtRp1958
(dp1959
g12
g50
sg14
S'Helonia'
p1960
sg16
I400
sg17
g13
sg18
g13
sg19
S'c:\\windows\\fonts\\heo_____.ttf'
p1961
sg21
g22
sbag7
(g8
g9
NtRp1962
(dp1963
g12
g13
sg14
S'MT Extra Tiger'
p1964
sg16
I400
sg17
g13
sg18
g13
sg19
S'c:\\windows\\fonts\\mt extra tiger.ttf'
p1965
sg21
g22
sbag7
(g8
g9
NtRp1966
(dp1967
g12
g50
sg14
S'CordiaUPC'
p1968
sg16
I400
sg17
g13
sg18
g13
sg19
S'c:\\windows\\fonts\\cordiaui.ttf'
p1969
sg21
g22
sbag7
(g8
g9
NtRp1970
(dp1971
g12
g13
sg14
S'Garamond'
p1972
sg16
I400
sg17
g13
sg18
g13
sg19
S'C:\\Windows\\Fonts\\GARA.TTF'
p1973
sg21
g22
sbag7
(g8
g9
NtRp1974
(dp1975
g12
g13
sg14
S'Century Gothic'
p1976
sg16
I400
sg17
g13
sg18
g13
sg19
S'c:\\windows\\fonts\\gothic.ttf'
p1977
sg21
g22
sbag7
(g8
g9
NtRp1978
(dp1979
g12
g13
sg14
S'Shonar Bangla'
p1980
sg16
I700
sg17
g13
sg18
g13
sg19
S'C:\\Windows\\Fonts\\Shonarb.ttf'
p1981
sg21
g22
sbag7
(g8
g9
NtRp1982
(dp1983
g12
g13
sg14
S'Blue Highway Linocut'
p1984
sg16
I400
sg17
g13
sg18
g13
sg19
S'c:\\windows\\fonts\\bluehigl.ttf'
p1985
sg21
g22
sbag7
(g8
g9
NtRp1986
(dp1987
g12
g13
sg14
S'Webdings'
p1988
sg16
I400
sg17
g13
sg18
g13
sg19
S'C:\\Windows\\Fonts\\webdings.ttf'
p1989
sg21
g22
sbag7
(g8
g9
NtRp1990
(dp1991
g12
g13
sg14
S'David'
p1992
sg16
I400
sg17
g13
sg18
g13
sg19
S'c:\\windows\\fonts\\david.ttf'
p1993
sg21
g22
sbag7
(g8
g9
NtRp1994
(dp1995
g12
g13
sg14
S'Garamond'
p1996
sg16
I400
sg17
g13
sg18
g13
sg19
S'c:\\windows\\fonts\\gara.ttf'
p1997
sg21
g22
sbag7
(g8
g9
NtRp1998
(dp1999
g12
g13
sg14
S'Helonia'
p2000
sg16
I400
sg17
g13
sg18
g13
sg19
S'c:\\windows\\fonts\\hen_____.ttf'
p2001
sg21
g22
sbag7
(g8
g9
NtRp2002
(dp2003
g12
g13
sg14
S'DejaVu Serif'
p2004
sg16
I400
sg17
g13
sg18
g13
sg19
S'c:\\windows\\fonts\\dejavuserif.ttf'
p2005
sg21
g22
sbag7
(g8
g9
NtRp2006
(dp2007
g12
g13
sg14
S'Carbon Block'
p2008
sg16
I400
sg17
g13
sg18
g13
sg19
S'c:\\windows\\fonts\\carbonbl.ttf'
p2009
sg21
g22
sbag7
(g8
g9
NtRp2010
(dp2011
g12
g13
sg14
S'Browallia New'
p2012
sg16
I400
sg17
g13
sg18
g13
sg19
S'C:\\Windows\\Fonts\\browa.ttf'
p2013
sg21
g22
sbag7
(g8
g9
NtRp2014
(dp2015
g12
g50
sg14
S'Gentium Book Basic'
p2016
sg16
I400
sg17
g13
sg18
g13
sg19
S'C:\\Windows\\Fonts\\GenBkBasI.ttf'
p2017
sg21
g22
sbag7
(g8
g9
NtRp2018
(dp2019
g12
g13
sg14
S'Amienne'
p2020
sg16
I400
sg17
g13
sg18
g13
sg19
S'c:\\windows\\fonts\\amienne_.ttf'
p2021
sg21
g22
sbag7
(g8
g9
NtRp2022
(dp2023
g12
g13
sg14
S'Andalus'
p2024
sg16
I400
sg17
g13
sg18
g13
sg19
S'C:\\Windows\\Fonts\\andlso.ttf'
p2025
sg21
g22
sbag7
(g8
g9
NtRp2026
(dp2027
g12
g50
sg14
S'Arial'
p2028
sg16
I400
sg17
g288
sg18
g13
sg19
S'C:\\Windows\\Fonts\\ARIALNI.TTF'
p2029
sg21
g22
sbag7
(g8
g9
NtRp2030
(dp2031
g12
g13
sg14
S'Byington'
p2032
sg16
I700
sg17
g13
sg18
g13
sg19
S'C:\\Windows\\Fonts\\byington_bold.ttf'
p2033
sg21
g22
sbag7
(g8
g9
NtRp2034
(dp2035
g12
g13
sg14
S'Euclid Math One'
p2036
sg16
I700
sg17
g13
sg18
g13
sg19
S'C:\\Windows\\Fonts\\eumat1b.ttf'
p2037
sg21
g22
sbag7
(g8
g9
NtRp2038
(dp2039
g12
g13
sg14
S'Vani'
p2040
sg16
I700
sg17
g13
sg18
g13
sg19
S'c:\\windows\\fonts\\vanib.ttf'
p2041
sg21
g22
sbag7
(g8
g9
NtRp2042
(dp2043
g12
g50
sg14
S'Wickenden Cafe NDP'
p2044
sg16
I400
sg17
g13
sg18
g13
sg19
S'c:\\windows\\fonts\\wickcni_.ttf'
p2045
sg21
g22
sbag7
(g8
g9
NtRp2046
(dp2047
g12
g13
sg14
S'Grad'
p2048
sg16
I400
sg17
g13
sg18
g13
sg19
S'c:\\windows\\fonts\\grad_regular.otf'
p2049
sg21
g22
sbag7
(g8
g9
NtRp2050
(dp2051
g12
g13
sg14
S'MaplePi'
p2052
sg16
I400
sg17
g13
sg18
g13
sg19
S'C:\\Windows\\Fonts\\MP______.ttf'
p2053
sg21
g22
sbag7
(g8
g9
NtRp2054
(dp2055
g12
g13
sg14
S'Burnstown Dam'
p2056
sg16
I400
sg17
g13
sg18
g13
sg19
S'C:\\Windows\\Fonts\\BURNSTOW.TTF'
p2057
sg21
g22
sbag7
(g8
g9
NtRp2058
(dp2059
g12
g13
sg14
S'Grad'
p2060
sg16
I400
sg17
g13
sg18
g13
sg19
S'C:\\Windows\\Fonts\\Grad_Regular.otf'
p2061
sg21
g22
sbag7
(g8
g9
NtRp2062
(dp2063
g12
g13
sg14
S'Verdana'
p2064
sg16
I400
sg17
g13
sg18
g13
sg19
S'C:\\Windows\\Fonts\\verdana.ttf'
p2065
sg21
g22
sbag7
(g8
g9
NtRp2066
(dp2067
g12
g13
sg14
S'French Script MT'
p2068
sg16
I400
sg17
g13
sg18
g13
sg19
S'c:\\windows\\fonts\\frscript.ttf'
p2069
sg21
g22
sbag7
(g8
g9
NtRp2070
(dp2071
g12
g50
sg14
S'LilyUPC'
p2072
sg16
I400
sg17
g13
sg18
g13
sg19
S'c:\\windows\\fonts\\upcli.ttf'
p2073
sg21
g22
sbag7
(g8
g9
NtRp2074
(dp2075
g12
g50
sg14
S'Arial'
p2076
sg16
I700
sg17
g288
sg18
g13
sg19
S'C:\\Windows\\Fonts\\ARIALNBI.TTF'
p2077
sg21
g22
sbag7
(g8
g9
NtRp2078
(dp2079
g12
g13
sg14
S'Microsoft New Tai Lue'
p2080
sg16
I700
sg17
g13
sg18
g13
sg19
S'C:\\Windows\\Fonts\\ntailub.ttf'
p2081
sg21
g22
sbag7
(g8
g9
NtRp2082
(dp2083
g12
g13
sg14
S'Berylium'
p2084
sg16
I400
sg17
g13
sg18
g13
sg19
S'C:\\Windows\\Fonts\\BERYLIUM.TTF'
p2085
sg21
g22
sbag7
(g8
g9
NtRp2086
(dp2087
g12
g13
sg14
S'Helonia'
p2088
sg16
I700
sg17
g13
sg18
g13
sg19
S'c:\\windows\\fonts\\heb_____.ttf'
p2089
sg21
g22
sbag7
(g8
g9
NtRp2090
(dp2091
g12
g13
sg14
S'ESSTIXSix'
p2092
sg16
I400
sg17
g13
sg18
g13
sg19
S'c:\\windows\\fonts\\esstix6_.ttf'
p2093
sg21
g22
sbag7
(g8
g9
NtRp2094
(dp2095
g12
g50
sg14
S'Browallia New'
p2096
sg16
I700
sg17
g13
sg18
g13
sg19
S'c:\\windows\\fonts\\browaz.ttf'
p2097
sg21
g22
sbag7
(g8
g9
NtRp2098
(dp2099
g12
g13
sg14
S'Credit Valley'
p2100
sg16
I700
sg17
g13
sg18
g13
sg19
S'C:\\Windows\\Fonts\\CREDITVB.TTF'
p2101
sg21
g22
sbag7
(g8
g9
NtRp2102
(dp2103
g12
g13
sg14
S'CordiaUPC'
p2104
sg16
I400
sg17
g13
sg18
g13
sg19
S'c:\\windows\\fonts\\cordiau.ttf'
p2105
sg21
g22
sbag7
(g8
g9
NtRp2106
(dp2107
g12
g13
sg14
S'EucrosiaUPC'
p2108
sg16
I700
sg17
g13
sg18
g13
sg19
S'c:\\windows\\fonts\\upceb.ttf'
p2109
sg21
g22
sbag7
(g8
g9
NtRp2110
(dp2111
g12
g13
sg14
S'Segoe UI'
p2112
sg16
I400
sg17
g13
sg18
g13
sg19
S'c:\\windows\\fonts\\segoeuisl.ttf'
p2113
sg21
g22
sbag7
(g8
g9
NtRp2114
(dp2115
g12
g13
sg14
S'Symbol Tiger'
p2116
sg16
I400
sg17
g13
sg18
g13
sg19
S'C:\\Windows\\Fonts\\Symbol Tiger.ttf'
p2117
sg21
g22
sbag7
(g8
g9
NtRp2118
(dp2119
g12
g13
sg14
S'Kredit'
p2120
sg16
I400
sg17
g13
sg18
g13
sg19
S'c:\\windows\\fonts\\kredit1.ttf'
p2121
sg21
g22
sbag7
(g8
g9
NtRp2122
(dp2123
g12
g13
sg14
S'Arnprior'
p2124
sg16
I400
sg17
g13
sg18
g13
sg19
S'C:\\Windows\\Fonts\\ARNPRIOR.TTF'
p2125
sg21
g22
sbag7
(g8
g9
NtRp2126
(dp2127
g12
g13
sg14
S'Gentium Basic'
p2128
sg16
I700
sg17
g13
sg18
g13
sg19
S'C:\\Windows\\Fonts\\GenBasB.ttf'
p2129
sg21
g22
sbag7
(g8
g9
NtRp2130
(dp2131
g12
g13
sg14
S'Thames'
p2132
sg16
I700
sg17
g13
sg18
g13
sg19
S'c:\\windows\\fonts\\thb_____.ttf'
p2133
sg21
g22
sbag7
(g8
g9
NtRp2134
(dp2135
g12
g13
sg14
S'Tahoma'
p2136
sg16
I400
sg17
g13
sg18
g13
sg19
S'C:\\Windows\\Fonts\\tahoma.ttf'
p2137
sg21
g22
sbag7
(g8
g9
NtRp2138
(dp2139
g12
g13
sg14
S'Traditional Arabic'
p2140
sg16
I400
sg17
g13
sg18
g13
sg19
S'C:\\Windows\\Fonts\\trado.ttf'
p2141
sg21
g22
sbag7
(g8
g9
NtRp2142
(dp2143
g12
g13
sg14
S'DejaVu Serif'
p2144
sg16
I700
sg17
g13
sg18
g13
sg19
S'C:\\Windows\\Fonts\\DejaVuSerif-Bold.ttf'
p2145
sg21
g22
sbag7
(g8
g9
NtRp2146
(dp2147
g12
g13
sg14
S'MaplePi'
p2148
sg16
I400
sg17
g13
sg18
g13
sg19
S'c:\\windows\\fonts\\maplepi.ttf'
p2149
sg21
g22
sbag7
(g8
g9
NtRp2150
(dp2151
g12
g50
sg14
S'Thames'
p2152
sg16
I400
sg17
g13
sg18
g13
sg19
S'c:\\windows\\fonts\\thi_____.ttf'
p2153
sg21
g22
sbag7
(g8
g9
NtRp2154
(dp2155
g12
g50
sg14
S'Angsana New'
p2156
sg16
I700
sg17
g13
sg18
g13
sg19
S'c:\\windows\\fonts\\angsaz.ttf'
p2157
sg21
g22
sbag7
(g8
g9
NtRp2158
(dp2159
g12
g13
sg14
S'ESSTIXSeventeen'
p2160
sg16
I400
sg17
g13
sg18
g13
sg19
S'c:\\windows\\fonts\\esstix17.ttf'
p2161
sg21
g22
sbag7
(g8
g9
NtRp2162
(dp2163
g12
g50
sg14
S'Credit Valley'
p2164
sg16
I400
sg17
g13
sg18
g13
sg19
S'c:\\windows\\fonts\\creditvi.ttf'
p2165
sg21
g22
sbag7
(g8
g9
NtRp2166
(dp2167
g12
g13
sg14
S'Nirmala UI'
p2168
sg16
I400
sg17
g13
sg18
g13
sg19
S'C:\\Windows\\Fonts\\NIRMALA.TTF'
p2169
sg21
g22
sbag7
(g8
g9
NtRp2170
(dp2171
g12
g13
sg14
S'SymbolPi'
p2172
sg16
I400
sg17
g13
sg18
g13
sg19
S'c:\\windows\\fonts\\syp_____.ttf'
p2173
sg21
g22
sbag7
(g8
g9
NtRp2174
(dp2175
g12
g13
sg14
S'Century Gothic'
p2176
sg16
I700
sg17
g13
sg18
g13
sg19
S'c:\\windows\\fonts\\gothicb.ttf'
p2177
sg21
g22
sbag7
(g8
g9
NtRp2178
(dp2179
g12
g13
sg14
S'CordiaUPC'
p2180
sg16
I700
sg17
g13
sg18
g13
sg19
S'c:\\windows\\fonts\\cordiaub.ttf'
p2181
sg21
g22
sbag7
(g8
g9
NtRp2182
(dp2183
g12
g50
sg14
S'Courant'
p2184
sg16
I700
sg17
g13
sg18
g13
sg19
S'c:\\windows\\fonts\\cobo____.ttf'
p2185
sg21
g22
sbag7
(g8
g9
NtRp2186
(dp2187
g12
g50
sg14
S'Garamond'
p2188
sg16
I400
sg17
g13
sg18
g13
sg19
S'C:\\Windows\\Fonts\\GARAIT.TTF'
p2189
sg21
g22
sbag7
(g8
g9
NtRp2190
(dp2191
g12
g13
sg14
S'Bookman Old Style'
p2192
sg16
I400
sg17
g13
sg18
g13
sg19
S'c:\\windows\\fonts\\bookos.ttf'
p2193
sg21
g22
sbag7
(g8
g9
NtRp2194
(dp2195
g12
g13
sg14
S'MoolBoran'
p2196
sg16
I400
sg17
g13
sg18
g13
sg19
S'c:\\windows\\fonts\\moolbor.ttf'
p2197
sg21
g22
sbag7
(g8
g9
NtRp2198
(dp2199
g12
g13
sg14
S'Euclid Math Two'
p2200
sg16
I400
sg17
g13
sg18
g13
sg19
S'c:\\windows\\fonts\\eumat2.ttf'
p2201
sg21
g22
sbag7
(g8
g9
NtRp2202
(dp2203
g12
g13
sg14
S'Lao UI'
p2204
sg16
I400
sg17
g13
sg18
g13
sg19
S'C:\\Windows\\Fonts\\LaoUI.ttf'
p2205
sg21
g22
sbag7
(g8
g9
NtRp2206
(dp2207
g12
g13
sg14
S'Baveuse'
p2208
sg16
I400
sg17
g13
sg18
g13
sg19
S'C:\\Windows\\Fonts\\BAVEUSE.TTF'
p2209
sg21
g22
sbag7
(g8
g9
NtRp2210
(dp2211
g12
g50
sg14
S'Arial'
p2212
sg16
I700
sg17
g288
sg18
g13
sg19
S'c:\\windows\\fonts\\arialnbi.ttf'
p2213
sg21
g22
sbag7
(g8
g9
NtRp2214
(dp2215
g12
g13
sg14
S'Carbon Block'
p2216
sg16
I400
sg17
g13
sg18
g13
sg19
S'C:\\Windows\\Fonts\\CARBONBL.TTF'
p2217
sg21
g22
sbag7
(g8
g9
NtRp2218
(dp2219
g12
g13
sg14
S'Pupcat'
p2220
sg16
I400
sg17
g13
sg18
g13
sg19
S'c:\\windows\\fonts\\pupcat__.ttf'
p2221
sg21
g22
sbag7
(g8
g9
NtRp2222
(dp2223
g12
g50
sg14
S'Century Gothic'
p2224
sg16
I700
sg17
g13
sg18
g13
sg19
S'C:\\Windows\\Fonts\\GOTHICBI.TTF'
p2225
sg21
g22
sbag7
(g8
g9
NtRp2226
(dp2227
g12
g13
sg14
S'ESSTIXSeven'
p2228
sg16
I400
sg17
g13
sg18
g13
sg19
S'C:\\Windows\\Fonts\\ESSTIX7_.TTF'
p2229
sg21
g22
sbag7
(g8
g9
NtRp2230
(dp2231
g12
g50
sg14
S'Arial'
p2232
sg16
I400
sg17
g288
sg18
g13
sg19
S'c:\\windows\\fonts\\arialni.ttf'
p2233
sg21
g22
sbag7
(g8
g9
NtRp2234
(dp2235
g12
g33
sg14
S'DejaVu Sans'
p2236
sg16
I400
sg17
g13
sg18
g13
sg19
S'C:\\Windows\\Fonts\\DejaVuSans-Oblique.ttf'
p2237
sg21
g22
sbag7
(g8
g9
NtRp2238
(dp2239
g12
g50
sg14
S'Century Gothic'
p2240
sg16
I400
sg17
g13
sg18
g13
sg19
S'c:\\windows\\fonts\\gothici.ttf'
p2241
sg21
g22
sbag7
(g8
g9
NtRp2242
(dp2243
g12
g13
sg14
S'DejaVu Sans'
p2244
sg16
I700
sg17
g13
sg18
g13
sg19
S'c:\\windows\\fonts\\dejavusans-bold.ttf'
p2245
sg21
g22
sbag7
(g8
g9
NtRp2246
(dp2247
g12
g13
sg14
S'ESSTIXTwelve'
p2248
sg16
I400
sg17
g13
sg18
g13
sg19
S'C:\\Windows\\Fonts\\ESSTIX12.TTF'
p2249
sg21
g22
sbag7
(g8
g9
NtRp2250
(dp2251
g12
g50
sg14
S'Berylium'
p2252
sg16
I700
sg17
g13
sg18
g13
sg19
S'C:\\Windows\\Fonts\\Berylibi.ttf'
p2253
sg21
g22
sbag7
(g8
g9
NtRp2254
(dp2255
g12
g50
sg14
S'DejaVu Serif'
p2256
sg16
I400
sg17
g288
sg18
g13
sg19
S'C:\\Windows\\Fonts\\DejaVuSerifCondensed-Italic.ttf'
p2257
sg21
g22
sbag7
(g8
g9
NtRp2258
(dp2259
g12
g13
sg14
S'ESSTIXEleven'
p2260
sg16
I400
sg17
g13
sg18
g13
sg19
S'C:\\Windows\\Fonts\\ESSTIX11.TTF'
p2261
sg21
g22
sbag7
(g8
g9
NtRp2262
(dp2263
g12
g13
sg14
S'Minya Nouvelle'
p2264
sg16
I700
sg17
g13
sg18
g13
sg19
S'C:\\Windows\\Fonts\\MINYNB__.TTF'
p2265
sg21
g22
sbag7
(g8
g9
NtRp2266
(dp2267
g12
g33
sg14
S'DejaVu Sans'
p2268
sg16
I700
sg17
g13
sg18
g13
sg19
S'c:\\windows\\fonts\\dejavusans-boldoblique.ttf'
p2269
sg21
g22
sbag7
(g8
g9
NtRp2270
(dp2271
g12
g13
sg14
S'Lao UI'
p2272
sg16
I700
sg17
g13
sg18
g13
sg19
S'c:\\windows\\fonts\\laouib.ttf'
p2273
sg21
g22
sbag7
(g8
g9
NtRp2274
(dp2275
g12
g13
sg14
S'MaplePi'
p2276
sg16
I400
sg17
g13
sg18
g13
sg19
S'c:\\windows\\fonts\\mp______.ttf'
p2277
sg21
g22
sbag7
(g8
g9
NtRp2278
(dp2279
g12
g13
sg14
S'Palatino Linotype'
p2280
sg16
I400
sg17
g13
sg18
g13
sg19
S'c:\\windows\\fonts\\pala.ttf'
p2281
sg21
g22
sbag7
(g8
g9
NtRp2282
(dp2283
g12
g13
sg14
S'DejaVu Serif'
p2284
sg16
I700
sg17
g288
sg18
g13
sg19
S'c:\\windows\\fonts\\dejavuserifcondensed-bold.ttf'
p2285
sg21
g22
sbag7
(g8
g9
NtRp2286
(dp2287
g12
g50
sg14
S'Gentium Basic'
p2288
sg16
I400
sg17
g13
sg18
g13
sg19
S'C:\\Windows\\Fonts\\GenBasI.ttf'
p2289
sg21
g22
sbag7
(g8
g9
NtRp2290
(dp2291
g12
g13
sg14
S'ESSTIXTen'
p2292
sg16
I400
sg17
g13
sg18
g13
sg19
S'C:\\Windows\\Fonts\\ESSTIX10.TTF'
p2293
sg21
g22
sbag7
(g8
g9
NtRp2294
(dp2295
g12
g13
sg14
S'Bella Donna'
p2296
sg16
I400
sg17
g13
sg18
g13
sg19
S'C:\\Windows\\Fonts\\Bella_Donna.ttf'
p2297
sg21
g22
sbag7
(g8
g9
NtRp2298
(dp2299
g12
g13
sg14
S'Courant'
p2300
sg16
I400
sg17
g13
sg18
g13
sg19
S'c:\\windows\\fonts\\con_____.ttf'
p2301
sg21
g22
sbag7
(g8
g9
NtRp2302
(dp2303
g12
g13
sg14
S'Planet Benson 2'
p2304
sg16
I400
sg17
g13
sg18
g13
sg19
S'C:\\Windows\\Fonts\\PLANETBE.TTF'
p2305
sg21
g22
sbag7
(g8
g9
NtRp2306
(dp2307
g12
g13
sg14
S'Arial Unicode MS'
p2308
sg16
I400
sg17
g13
sg18
g13
sg19
S'C:\\Windows\\Fonts\\ARIALUNI.TTF'
p2309
sg21
g22
sbag7
(g8
g9
NtRp2310
(dp2311
g12
g13
sg14
S'Rod'
p2312
sg16
I400
sg17
g13
sg18
g13
sg19
S'c:\\windows\\fonts\\rod.ttf'
p2313
sg21
g22
sbag7
(g8
g9
NtRp2314
(dp2315
g12
g13
sg14
S'Segoe UI Symbol'
p2316
sg16
I400
sg17
g13
sg18
g13
sg19
S'c:\\windows\\fonts\\seguisym.ttf'
p2317
sg21
g22
sbag7
(g8
g9
NtRp2318
(dp2319
g12
g50
sg14
S'Candara'
p2320
sg16
I700
sg17
g13
sg18
g13
sg19
S'c:\\windows\\fonts\\candaraz.ttf'
p2321
sg21
g22
sbag7
(g8
g9
NtRp2322
(dp2323
g12
g13
sg14
S'ESSTIXTwelve'
p2324
sg16
I400
sg17
g13
sg18
g13
sg19
S'c:\\windows\\fonts\\esstix12.ttf'
p2325
sg21
g22
sbag7
(g8
g9
NtRp2326
(dp2327
g12
g13
sg14
S'Credit Valley'
p2328
sg16
I400
sg17
g13
sg18
g13
sg19
S'C:\\Windows\\Fonts\\CREDITVA.TTF'
p2329
sg21
g22
sbag7
(g8
g9
NtRp2330
(dp2331
g12
g50
sg14
S'Wickenden Cafe NDP'
p2332
sg16
I700
sg17
g13
sg18
g13
sg19
S'C:\\Windows\\Fonts\\WICKCNBI.TTF'
p2333
sg21
g22
sbag7
(g8
g9
NtRp2334
(dp2335
g12
g13
sg14
S'Khmer UI'
p2336
sg16
I700
sg17
g13
sg18
g13
sg19
S'C:\\Windows\\Fonts\\KhmerUIb.ttf'
p2337
sg21
g22
sbag7
(g8
g9
NtRp2338
(dp2339
g12
g13
sg14
S'Georgia'
p2340
sg16
I700
sg17
g13
sg18
g13
sg19
S'c:\\windows\\fonts\\georgiab.ttf'
p2341
sg21
g22
sbag7
(g8
g9
NtRp2342
(dp2343
g12
g50
sg14
S'Thames'
p2344
sg16
I700
sg17
g13
sg18
g13
sg19
S'c:\\windows\\fonts\\thbi____.ttf'
p2345
sg21
g22
sbag7
(g8
g9
NtRp2346
(dp2347
g12
g13
sg14
S'FangSong'
p2348
sg16
I400
sg17
g13
sg18
g13
sg19
S'C:\\Windows\\Fonts\\simfang.ttf'
p2349
sg21
g22
sbag7
(g8
g9
NtRp2350
(dp2351
g12
g13
sg14
S'Thames'
p2352
sg16
I400
sg17
g13
sg18
g13
sg19
S'c:\\windows\\fonts\\thr_____.ttf'
p2353
sg21
g22
sbag7
(g8
g9
NtRp2354
(dp2355
g12
g13
sg14
S'MS Reference Specialty'
p2356
sg16
I400
sg17
g13
sg18
g13
sg19
S'C:\\Windows\\Fonts\\REFSPCL.TTF'
p2357
sg21
g22
sbag7
(g8
g9
NtRp2358
(dp2359
g12
g13
sg14
S'DejaVu Serif'
p2360
sg16
I400
sg17
g288
sg18
g13
sg19
S'C:\\Windows\\Fonts\\DejaVuSerifCondensed.ttf'
p2361
sg21
g22
sbag7
(g8
g9
NtRp2362
(dp2363
g12
g13
sg14
S'Teen'
p2364
sg16
I400
sg17
g13
sg18
g13
sg19
S'c:\\windows\\fonts\\teen____.ttf'
p2365
sg21
g22
sbag7
(g8
g9
NtRp2366
(dp2367
g12
g13
sg14
S'Gadugi'
p2368
sg16
I700
sg17
g13
sg18
g13
sg19
S'c:\\windows\\fonts\\gadugib.ttf'
p2369
sg21
g22
sbag7
(g8
g9
NtRp2370
(dp2371
g12
g13
sg14
S'Kredit'
p2372
sg16
I400
sg17
g13
sg18
g13
sg19
S'C:\\Windows\\Fonts\\KREDIT1.TTF'
p2373
sg21
g22
sbag7
(g8
g9
NtRp2374
(dp2375
g12
g50
sg14
S'DejaVu Serif'
p2376
sg16
I400
sg17
g13
sg18
g13
sg19
S'C:\\Windows\\Fonts\\DejaVuSerif-Italic.ttf'
p2377
sg21
g22
sbag7
(g8
g9
NtRp2378
(dp2379
g12
g13
sg14
S'MS Outlook'
p2380
sg16
I400
sg17
g13
sg18
g13
sg19
S'C:\\Windows\\Fonts\\OUTLOOK.TTF'
p2381
sg21
g22
sbag7
(g8
g9
NtRp2382
(dp2383
g12
g50
sg14
S'Arimo'
p2384
sg16
I400
sg17
g13
sg18
g13
sg19
S'c:\\windows\\fonts\\arimo-italic.ttf'
p2385
sg21
g22
sbag7
(g8
g9
NtRp2386
(dp2387
g12
g13
sg14
S'Minya Nouvelle'
p2388
sg16
I700
sg17
g13
sg18
g13
sg19
S'c:\\windows\\fonts\\minynb__.ttf'
p2389
sg21
g22
sbag7
(g8
g9
NtRp2390
(dp2391
g12
g13
sg14
S'Euclid Symbol'
p2392
sg16
I700
sg17
g13
sg18
g13
sg19
S'c:\\windows\\fonts\\eucsymb.ttf'
p2393
sg21
g22
sbag7
(g8
g9
NtRp2394
(dp2395
g12
g13
sg14
S'Arimo'
p2396
sg16
I700
sg17
g13
sg18
g13
sg19
S'c:\\windows\\fonts\\arimo-bold.ttf'
p2397
sg21
g22
sbag7
(g8
g9
NtRp2398
(dp2399
g12
g13
sg14
S'Kristen ITC'
p2400
sg16
I400
sg17
g13
sg18
g13
sg19
S'c:\\windows\\fonts\\itckrist.ttf'
p2401
sg21
g22
sbag7
(g8
g9
NtRp2402
(dp2403
g12
g13
sg14
S'DejaVu Sans'
p2404
sg16
I200
sg17
g13
sg18
g13
sg19
S'c:\\windows\\fonts\\dejavusans-extralight.ttf'
p2405
sg21
g22
sbag7
(g8
g9
NtRp2406
(dp2407
g12
g13
sg14
S'Arimo'
p2408
sg16
I400
sg17
g13
sg18
g13
sg19
S'C:\\Windows\\Fonts\\Arimo-Regular.ttf'
p2409
sg21
g22
sbag7
(g8
g9
NtRp2410
(dp2411
g12
g13
sg14
S'Bradley Hand ITC'
p2412
sg16
I400
sg17
g13
sg18
g13
sg19
S'c:\\windows\\fonts\\bradhitc.ttf'
p2413
sg21
g22
sbag7
(g8
g9
NtRp2414
(dp2415
g12
g13
sg14
S'ESSTIXFifteen'
p2416
sg16
I400
sg17
g13
sg18
g13
sg19
S'c:\\windows\\fonts\\esstix15.ttf'
p2417
sg21
g22
sbag7
(g8
g9
NtRp2418
(dp2419
g12
g13
sg14
S'Century'
p2420
sg16
I400
sg17
g13
sg18
g13
sg19
S'C:\\Windows\\Fonts\\CENTURY.TTF'
p2421
sg21
g22
sbag7
(g8
g9
NtRp2422
(dp2423
g12
g50
sg14
S'Minya Nouvelle'
p2424
sg16
I700
sg17
g13
sg18
g13
sg19
S'C:\\Windows\\Fonts\\MINYNBI_.TTF'
p2425
sg21
g22
sbag7
(g8
g9
NtRp2426
(dp2427
g12
g13
sg14
S'Vrinda'
p2428
sg16
I400
sg17
g13
sg18
g13
sg19
S'C:\\Windows\\Fonts\\vrinda.ttf'
p2429
sg21
g22
sbag7
(g8
g9
NtRp2430
(dp2431
g12
g13
sg14
S'Arial'
p2432
sg16
I700
sg17
g288
sg18
g13
sg19
S'C:\\Windows\\Fonts\\ARIALNB.TTF'
p2433
sg21
g22
sbag7
(g8
g9
NtRp2434
(dp2435
g12
g13
sg14
S'Gadugi'
p2436
sg16
I400
sg17
g13
sg18
g13
sg19
S'C:\\Windows\\Fonts\\GADUGI.TTF'
p2437
sg21
g22
sbag7
(g8
g9
NtRp2438
(dp2439
g12
g13
sg14
S'Bookshelf Symbol 7'
p2440
sg16
I400
sg17
g13
sg18
g13
sg19
S'c:\\windows\\fonts\\bssym7.ttf'
p2441
sg21
g22
sbag7
(g8
g9
NtRp2442
(dp2443
g12
g50
sg14
S'Courant'
p2444
sg16
I400
sg17
g13
sg18
g13
sg19
S'C:\\Windows\\Fonts\\COO_____.ttf'
p2445
sg21
g22
sbag7
(g8
g9
NtRp2446
(dp2447
g12
g13
sg14
S'ESSTIXSixteen'
p2448
sg16
I400
sg17
g13
sg18
g13
sg19
S'C:\\Windows\\Fonts\\ESSTIX16.TTF'
p2449
sg21
g22
sbag7
(g8
g9
NtRp2450
(dp2451
g12
g13
sg14
S'Candara'
p2452
sg16
I400
sg17
g13
sg18
g13
sg19
S'C:\\Windows\\Fonts\\Candara.ttf'
p2453
sg21
g22
sbag7
(g8
g9
NtRp2454
(dp2455
g12
g13
sg14
S'Wickenden Cafe NDP'
p2456
sg16
I700
sg17
g13
sg18
g13
sg19
S'c:\\windows\\fonts\\wickcnb_.ttf'
p2457
sg21
g22
sbag7
(g8
g9
NtRp2458
(dp2459
g12
g13
sg14
S'Neuropol'
p2460
sg16
I400
sg17
g13
sg18
g13
sg19
S'C:\\Windows\\Fonts\\NEUROPOL.TTF'
p2461
sg21
g22
sbag7
(g8
g9
NtRp2462
(dp2463
g12
g50
sg14
S'Lucida Handwriting'
p2464
sg16
I400
sg17
g13
sg18
g13
sg19
S'c:\\windows\\fonts\\lhandw.ttf'
p2465
sg21
g22
sbag7
(g8
g9
NtRp2466
(dp2467
g12
g13
sg14
S'ESSTIXThirteen'
p2468
sg16
I400
sg17
g13
sg18
g13
sg19
S'C:\\Windows\\Fonts\\ESSTIX13.TTF'
p2469
sg21
g22
sbag7
(g8
g9
NtRp2470
(dp2471
g12
g13
sg14
S'Pristina'
p2472
sg16
I400
sg17
g13
sg18
g13
sg19
S'C:\\Windows\\Fonts\\PRISTINA.TTF'
p2473
sg21
g22
sbag7
(g8
g9
NtRp2474
(dp2475
g12
g13
sg14
S'DejaVu Sans'
p2476
sg16
I400
sg17
g288
sg18
g13
sg19
S'c:\\windows\\fonts\\dejavusanscondensed.ttf'
p2477
sg21
g22
sbag7
(g8
g9
NtRp2478
(dp2479
g12
g50
sg14
S'KodchiangUPC'
p2480
sg16
I400
sg17
g13
sg18
g13
sg19
S'c:\\windows\\fonts\\upcki.ttf'
p2481
sg21
g22
sbag7
(g8
g9
NtRp2482
(dp2483
g12
g50
sg14
S'Gentium Basic'
p2484
sg16
I700
sg17
g13
sg18
g13
sg19
S'C:\\Windows\\Fonts\\GenBasBI.ttf'
p2485
sg21
g22
sbag7
(g8
g9
NtRp2486
(dp2487
g12
g13
sg14
S'Plantagenet Cherokee'
p2488
sg16
I400
sg17
g13
sg18
g13
sg19
S'c:\\windows\\fonts\\plantc.ttf'
p2489
sg21
g22
sbag7
(g8
g9
NtRp2490
(dp2491
g12
g13
sg14
S'ESSTIXOne'
p2492
sg16
I400
sg17
g13
sg18
g13
sg19
S'C:\\Windows\\Fonts\\ESSTIX1_.TTF'
p2493
sg21
g22
sbag7
(g8
g9
NtRp2494
(dp2495
g12
g13
sg14
S'Tiger'
p2496
sg16
I400
sg17
g13
sg18
g13
sg19
S'C:\\Windows\\Fonts\\Tiger.ttf'
p2497
sg21
g22
sbag7
(g8
g9
NtRp2498
(dp2499
g12
g13
sg14
S'ESSTIXTwo'
p2500
sg16
I400
sg17
g13
sg18
g13
sg19
S'c:\\windows\\fonts\\esstix2_.ttf'
p2501
sg21
g22
sbag7
(g8
g9
NtRp2502
(dp2503
g12
g13
sg14
S'Freestyle Script'
p2504
sg16
I400
sg17
g13
sg18
g13
sg19
S'C:\\Windows\\Fonts\\FREESCPT.TTF'
p2505
sg21
g22
sbag7
(g8
g9
NtRp2506
(dp2507
g12
g13
sg14
S'Latha'
p2508
sg16
I700
sg17
g13
sg18
g13
sg19
S'C:\\Windows\\Fonts\\lathab.ttf'
p2509
sg21
g22
sbag7
(g8
g9
NtRp2510
(dp2511
g12
g13
sg14
S'Gabriola'
p2512
sg16
I400
sg17
g13
sg18
g13
sg19
S'c:\\windows\\fonts\\gabriola.ttf'
p2513
sg21
g22
sbag7
(g8
g9
NtRp2514
(dp2515
g12
g13
sg14
S'Courant'
p2516
sg16
I700
sg17
g13
sg18
g13
sg19
S'C:\\Windows\\Fonts\\COB_____.ttf'
p2517
sg21
g22
sbag7
(g8
g9
NtRp2518
(dp2519
g12
g13
sg14
S'Gentium Basic'
p2520
sg16
I700
sg17
g13
sg18
g13
sg19
S'c:\\windows\\fonts\\genbasb.ttf'
p2521
sg21
g22
sbag7
(g8
g9
NtRp2522
(dp2523
g12
g13
sg14
S'Gentium Book Basic'
p2524
sg16
I700
sg17
g13
sg18
g13
sg19
S'c:\\windows\\fonts\\genbkbasb.ttf'
p2525
sg21
g22
sbag7
(g8
g9
NtRp2526
(dp2527
g12
g33
sg14
S'DejaVu Sans Mono'
p2528
sg16
I700
sg17
g13
sg18
g13
sg19
S'C:\\Windows\\Fonts\\DejaVuSansMono-BoldOblique.ttf'
p2529
sg21
g22
sbag7
(g8
g9
NtRp2530
(dp2531
g12
g13
sg14
S'DejaVu Sans'
p2532
sg16
I700
sg17
g288
sg18
g13
sg19
S'C:\\Windows\\Fonts\\DejaVuSansCondensed-Bold.ttf'
p2533
sg21
g22
sbag7
(g8
g9
NtRp2534
(dp2535
g12
g50
sg14
S'Century Gothic'
p2536
sg16
I400
sg17
g13
sg18
g13
sg19
S'C:\\Windows\\Fonts\\GOTHICI.TTF'
p2537
sg21
g22
sbag7
(g8
g9
NtRp2538
(dp2539
g12
g13
sg14
S'Thames'
p2540
sg16
I700
sg17
g13
sg18
g13
sg19
S'C:\\Windows\\Fonts\\THB_____.ttf'
p2541
sg21
g22
sbag7
(g8
g9
NtRp2542
(dp2543
g12
g13
sg14
S'Blue Highway D Type'
p2544
sg16
I400
sg17
g13
sg18
g13
sg19
S'c:\\windows\\fonts\\bluehigd.ttf'
p2545
sg21
g22
sbag7
(g8
g9
NtRp2546
(dp2547
g12
g13
sg14
S'Khmer UI'
p2548
sg16
I400
sg17
g13
sg18
g13
sg19
S'C:\\Windows\\Fonts\\KhmerUI.ttf'
p2549
sg21
g22
sbag7
(g8
g9
NtRp2550
(dp2551
g12
g50
sg14
S'Bookman Old Style'
p2552
sg16
I700
sg17
g13
sg18
g13
sg19
S'C:\\Windows\\Fonts\\BOOKOSBI.TTF'
p2553
sg21
g22
sbag7
(g8
g9
NtRp2554
(dp2555
g12
g33
sg14
S'DejaVu Sans Mono'
p2556
sg16
I400
sg17
g13
sg18
g13
sg19
S'c:\\windows\\fonts\\dejavusansmono-oblique.ttf'
p2557
sg21
g22
sbag7
(g8
g9
NtRp2558
(dp2559
g12
g13
sg14
S'ESSTIXEight'
p2560
sg16
I400
sg17
g13
sg18
g13
sg19
S'C:\\Windows\\Fonts\\ESSTIX8_.TTF'
p2561
sg21
g22
sbasS'defaultFamily'
p2562
(dp2563
S'afm'
p2564
S'Helvetica'
p2565
sS'ttf'
p2566
S'Bitstream Vera Sans'
p2567
ssS'ttffiles'
p2568
(lp2569
S'C:\\PROGRA~1\\QGISBR~1\\apps\\Python27\\lib\\site-packages\\matplotlib-1.3.1-py2.7-win-amd64.egg\\matplotlib\\mpl-data\\fonts\\ttf\\cmtt10.ttf'
p2570
aS'C:\\PROGRA~1\\QGISBR~1\\apps\\Python27\\lib\\site-packages\\matplotlib-1.3.1-py2.7-win-amd64.egg\\matplotlib\\mpl-data\\fonts\\ttf\\cmb10.ttf'
p2571
aS'C:\\PROGRA~1\\QGISBR~1\\apps\\Python27\\lib\\site-packages\\matplotlib-1.3.1-py2.7-win-amd64.egg\\matplotlib\\mpl-data\\fonts\\ttf\\STIXNonUniBol.ttf'
p2572
aS'C:\\PROGRA~1\\QGISBR~1\\apps\\Python27\\lib\\site-packages\\matplotlib-1.3.1-py2.7-win-amd64.egg\\matplotlib\\mpl-data\\fonts\\ttf\\VeraMoIt.ttf'
p2573
aS'C:\\PROGRA~1\\QGISBR~1\\apps\\Python27\\lib\\site-packages\\matplotlib-1.3.1-py2.7-win-amd64.egg\\matplotlib\\mpl-data\\fonts\\ttf\\VeraSeBd.ttf'
p2574
aS'C:\\PROGRA~1\\QGISBR~1\\apps\\Python27\\lib\\site-packages\\matplotlib-1.3.1-py2.7-win-amd64.egg\\matplotlib\\mpl-data\\fonts\\ttf\\VeraIt.ttf'
p2575
aS'C:\\PROGRA~1\\QGISBR~1\\apps\\Python27\\lib\\site-packages\\matplotlib-1.3.1-py2.7-win-amd64.egg\\matplotlib\\mpl-data\\fonts\\ttf\\STIXSizFiveSymReg.ttf'
p2576
aS'C:\\PROGRA~1\\QGISBR~1\\apps\\Python27\\lib\\site-packages\\matplotlib-1.3.1-py2.7-win-amd64.egg\\matplotlib\\mpl-data\\fonts\\ttf\\STIXGeneralBolIta.ttf'
p2577
aS'C:\\PROGRA~1\\QGISBR~1\\apps\\Python27\\lib\\site-packages\\matplotlib-1.3.1-py2.7-win-amd64.egg\\matplotlib\\mpl-data\\fonts\\ttf\\STIXSizOneSymReg.ttf'
p2578
aS'C:\\PROGRA~1\\QGISBR~1\\apps\\Python27\\lib\\site-packages\\matplotlib-1.3.1-py2.7-win-amd64.egg\\matplotlib\\mpl-data\\fonts\\ttf\\STIXSizThreeSymBol.ttf'
p2579
aS'C:\\PROGRA~1\\QGISBR~1\\apps\\Python27\\lib\\site-packages\\matplotlib-1.3.1-py2.7-win-amd64.egg\\matplotlib\\mpl-data\\fonts\\ttf\\STIXSizOneSymBol.ttf'
p2580
aS'C:\\PROGRA~1\\QGISBR~1\\apps\\Python27\\lib\\site-packages\\matplotlib-1.3.1-py2.7-win-amd64.egg\\matplotlib\\mpl-data\\fonts\\ttf\\cmss10.ttf'
p2581
aS'C:\\PROGRA~1\\QGISBR~1\\apps\\Python27\\lib\\site-packages\\matplotlib-1.3.1-py2.7-win-amd64.egg\\matplotlib\\mpl-data\\fonts\\ttf\\VeraMono.ttf'
p2582
aS'C:\\PROGRA~1\\QGISBR~1\\apps\\Python27\\lib\\site-packages\\matplotlib-1.3.1-py2.7-win-amd64.egg\\matplotlib\\mpl-data\\fonts\\ttf\\STIXSizTwoSymBol.ttf'
p2583
aS'C:\\PROGRA~1\\QGISBR~1\\apps\\Python27\\lib\\site-packages\\matplotlib-1.3.1-py2.7-win-amd64.egg\\matplotlib\\mpl-data\\fonts\\ttf\\VeraMoBd.ttf'
p2584
aS'C:\\PROGRA~1\\QGISBR~1\\apps\\Python27\\lib\\site-packages\\matplotlib-1.3.1-py2.7-win-amd64.egg\\matplotlib\\mpl-data\\fonts\\ttf\\VeraBd.ttf'
p2585
aS'C:\\PROGRA~1\\QGISBR~1\\apps\\Python27\\lib\\site-packages\\matplotlib-1.3.1-py2.7-win-amd64.egg\\matplotlib\\mpl-data\\fonts\\ttf\\STIXSizFourSymBol.ttf'
p2586
aS'C:\\PROGRA~1\\QGISBR~1\\apps\\Python27\\lib\\site-packages\\matplotlib-1.3.1-py2.7-win-amd64.egg\\matplotlib\\mpl-data\\fonts\\ttf\\cmsy10.ttf'
p2587
aS'C:\\PROGRA~1\\QGISBR~1\\apps\\Python27\\lib\\site-packages\\matplotlib-1.3.1-py2.7-win-amd64.egg\\matplotlib\\mpl-data\\fonts\\ttf\\STIXGeneral.ttf'
p2588
aS'C:\\PROGRA~1\\QGISBR~1\\apps\\Python27\\lib\\site-packages\\matplotlib-1.3.1-py2.7-win-amd64.egg\\matplotlib\\mpl-data\\fonts\\ttf\\STIXSizFourSymReg.ttf'
p2589
aS'C:\\PROGRA~1\\QGISBR~1\\apps\\Python27\\lib\\site-packages\\matplotlib-1.3.1-py2.7-win-amd64.egg\\matplotlib\\mpl-data\\fonts\\ttf\\VeraBI.ttf'
p2590
aS'C:\\PROGRA~1\\QGISBR~1\\apps\\Python27\\lib\\site-packages\\matplotlib-1.3.1-py2.7-win-amd64.egg\\matplotlib\\mpl-data\\fonts\\ttf\\STIXNonUniIta.ttf'
p2591
aS'C:\\PROGRA~1\\QGISBR~1\\apps\\Python27\\lib\\site-packages\\matplotlib-1.3.1-py2.7-win-amd64.egg\\matplotlib\\mpl-data\\fonts\\ttf\\STIXNonUniBolIta.ttf'
p2592
aS'C:\\PROGRA~1\\QGISBR~1\\apps\\Python27\\lib\\site-packages\\matplotlib-1.3.1-py2.7-win-amd64.egg\\matplotlib\\mpl-data\\fonts\\ttf\\cmex10.ttf'
p2593
aS'C:\\PROGRA~1\\QGISBR~1\\apps\\Python27\\lib\\site-packages\\matplotlib-1.3.1-py2.7-win-amd64.egg\\matplotlib\\mpl-data\\fonts\\ttf\\STIXGeneralItalic.ttf'
p2594
aS'C:\\PROGRA~1\\QGISBR~1\\apps\\Python27\\lib\\site-packages\\matplotlib-1.3.1-py2.7-win-amd64.egg\\matplotlib\\mpl-data\\fonts\\ttf\\cmmi10.ttf'
p2595
aS'C:\\PROGRA~1\\QGISBR~1\\apps\\Python27\\lib\\site-packages\\matplotlib-1.3.1-py2.7-win-amd64.egg\\matplotlib\\mpl-data\\fonts\\ttf\\STIXSizThreeSymReg.ttf'
p2596
aS'C:\\PROGRA~1\\QGISBR~1\\apps\\Python27\\lib\\site-packages\\matplotlib-1.3.1-py2.7-win-amd64.egg\\matplotlib\\mpl-data\\fonts\\ttf\\cmr10.ttf'
p2597
aS'C:\\PROGRA~1\\QGISBR~1\\apps\\Python27\\lib\\site-packages\\matplotlib-1.3.1-py2.7-win-amd64.egg\\matplotlib\\mpl-data\\fonts\\ttf\\VeraMoBI.ttf'
p2598
aS'C:\\PROGRA~1\\QGISBR~1\\apps\\Python27\\lib\\site-packages\\matplotlib-1.3.1-py2.7-win-amd64.egg\\matplotlib\\mpl-data\\fonts\\ttf\\STIXNonUni.ttf'
p2599
aS'C:\\PROGRA~1\\QGISBR~1\\apps\\Python27\\lib\\site-packages\\matplotlib-1.3.1-py2.7-win-amd64.egg\\matplotlib\\mpl-data\\fonts\\ttf\\Vera.ttf'
p2600
aS'C:\\PROGRA~1\\QGISBR~1\\apps\\Python27\\lib\\site-packages\\matplotlib-1.3.1-py2.7-win-amd64.egg\\matplotlib\\mpl-data\\fonts\\ttf\\STIXGeneralBol.ttf'
p2601
aS'C:\\PROGRA~1\\QGISBR~1\\apps\\Python27\\lib\\site-packages\\matplotlib-1.3.1-py2.7-win-amd64.egg\\matplotlib\\mpl-data\\fonts\\ttf\\STIXSizTwoSymReg.ttf'
p2602
aS'C:\\PROGRA~1\\QGISBR~1\\apps\\Python27\\lib\\site-packages\\matplotlib-1.3.1-py2.7-win-amd64.egg\\matplotlib\\mpl-data\\fonts\\ttf\\VeraSe.ttf'
p2603
aVC:\u005cWindows\u005cFonts\u005ccour.ttf
p2604
aVc:\u005cwindows\u005cfonts\u005cbrowai.ttf
p2605
aVc:\u005cwindows\u005cfonts\u005ccambriab.ttf
p2606
aVC:\u005cWindows\u005cFonts\u005cverdanaz.ttf
p2607
aVC:\u005cWindows\u005cFonts\u005cpalabi.ttf
p2608
aVc:\u005cwindows\u005cfonts\u005cupcji.ttf
p2609
aVC:\u005cWindows\u005cFonts\u005ctaileb.ttf
p2610
aVc:\u005cwindows\u005cfonts\u005ctrebucbd.ttf
p2611
aVC:\u005cWindows\u005cFonts\u005ctahomabd.ttf
p2612
aVC:\u005cWindows\u005cFonts\u005cCSchoolGirlsIntl.ttf
p2613
aVC:\u005cWindows\u005cFonts\u005cGOTHIC.TTF
p2614
aVc:\u005cwindows\u005cfonts\u005cbrowau.ttf
p2615
aVc:\u005cwindows\u005cfonts\u005cesstix7_.ttf
p2616
aVC:\u005cWindows\u005cFonts\u005cbyington.ttf
p2617
aVc:\u005cwindows\u005cfonts\u005csimkai.ttf
p2618
aVc:\u005cwindows\u005cfonts\u005cupcel.ttf
p2619
aVc:\u005cwindows\u005cfonts\u005ctaileb.ttf
p2620
aVC:\u005cWindows\u005cFonts\u005ckokila.ttf
p2621
aVc:\u005cwindows\u005cfonts\u005ctrebucbi.ttf
p2622
aVc:\u005cwindows\u005cfonts\u005cmtcorsva.ttf
p2623
aVc:\u005cwindows\u005cfonts\u005cberylibi.ttf
p2624
aVc:\u005cwindows\u005cfonts\u005csegoeuiz.ttf
p2625
aVC:\u005cWindows\u005cFonts\u005cSshlined.ttf
p2626
aVC:\u005cWindows\u005cFonts\u005ceuextra.ttf
p2627
aVC:\u005cWindows\u005cFonts\u005cWICKCNB_.TTF
p2628
aVc:\u005cwindows\u005cfonts\u005cbrowauz.ttf
p2629
aVC:\u005cWindows\u005cFonts\u005cmalgunbd.ttf
p2630
aVC:\u005cWindows\u005cFonts\u005cdokchamp.ttf
p2631
aVc:\u005cwindows\u005cfonts\u005cmtextra.ttf
p2632
aVc:\u005cwindows\u005cfonts\u005cariali.ttf
p2633
aVc:\u005cwindows\u005cfonts\u005ccatriel italic.ttf
p2634
aVc:\u005cwindows\u005cfonts\u005ckhmeruib.ttf
p2635
aVC:\u005cWindows\u005cFonts\u005cMt Extra Tiger.ttf
p2636
aVC:\u005cWindows\u005cFonts\u005cDejaVuSansCondensed-BoldOblique.ttf
p2637
aVc:\u005cwindows\u005cfonts\u005cgenbkbasbi.ttf
p2638
aVc:\u005cwindows\u005cfonts\u005csimpo.ttf
p2639
aVc:\u005cwindows\u005cfonts\u005carabtype.ttf
p2640
aVC:\u005cWindows\u005cFonts\u005ckartikab.ttf
p2641
aVc:\u005cwindows\u005cfonts\u005caparaji.ttf
p2642
aVC:\u005cWindows\u005cFonts\u005cTEENITAL.TTF
p2643
aVc:\u005cwindows\u005cfonts\u005ckhmerui.ttf
p2644
aVc:\u005cwindows\u005cfonts\u005cseguisb.ttf
p2645
aVc:\u005cwindows\u005cfonts\u005cesstix10.ttf
p2646
aVC:\u005cWindows\u005cFonts\u005cbiondi.ttf
p2647
aVC:\u005cWindows\u005cFonts\u005cESSTIX5_.TTF
p2648
aVC:\u005cWindows\u005cFonts\u005ccatriel bold.ttf
p2649
aVc:\u005cwindows\u005cfonts\u005ceucsymi.ttf
p2650
aVC:\u005cWindows\u005cFonts\u005ccalibril.ttf
p2651
aVC:\u005cWindows\u005cFonts\u005ccordiab.ttf
p2652
aVC:\u005cWindows\u005cFonts\u005cgautamib.ttf
p2653
aVC:\u005cWindows\u005cFonts\u005ceuphemia.ttf
p2654
aVC:\u005cWindows\u005cFonts\u005cgeorgiai.ttf
p2655
aVc:\u005cwindows\u005cfonts\u005cligurino condensed.ttf
p2656
aVC:\u005cWindows\u005cFonts\u005cwaker___.ttf
p2657
aVc:\u005cwindows\u005cfonts\u005cteenlite.ttf
p2658
aVc:\u005cwindows\u005cfonts\u005churryup.ttf
p2659
aVC:\u005cWindows\u005cFonts\u005cVELVENDC.TTF
p2660
aVC:\u005cWindows\u005cFonts\u005chimalaya.ttf
p2661
aVc:\u005cwindows\u005cfonts\u005ctahomabd.ttf
p2662
aVc:\u005cwindows\u005cfonts\u005ccschoolgirlsintl.ttf
p2663
aVc:\u005cwindows\u005cfonts\u005ccreditva.ttf
p2664
aVc:\u005cwindows\u005cfonts\u005ckokilab.ttf
p2665
aVc:\u005cwindows\u005cfonts\u005cgautamib.ttf
p2666
aVc:\u005cwindows\u005cfonts\u005cdejavusanscondensed-bold.ttf
p2667
aVc:\u005cwindows\u005cfonts\u005cconsola.ttf
p2668
aVc:\u005cwindows\u005cfonts\u005chebo____.ttf
p2669
aVC:\u005cWindows\u005cFonts\u005cangsai.ttf
p2670
aVC:\u005cWindows\u005cFonts\u005cupcfb.ttf
p2671
aVc:\u005cwindows\u005cfonts\u005carialbd.ttf
p2672
aVC:\u005cWindows\u005cFonts\u005cmajalla.ttf
p2673
aVC:\u005cWindows\u005cFonts\u005cDejaVuSans-BoldOblique.ttf
p2674
aVC:\u005cWindows\u005cFonts\u005cTiger Expert.ttf
p2675
aVC:\u005cWindows\u005cFonts\u005cGenBkBasB.ttf
p2676
aVc:\u005cwindows\u005cfonts\u005cmsyh.ttf
p2677
aVC:\u005cWindows\u005cFonts\u005ctunga.ttf
p2678
aVc:\u005cwindows\u005cfonts\u005cverdanaz.ttf
p2679
aVC:\u005cWindows\u005cFonts\u005craavi.ttf
p2680
aVC:\u005cWindows\u005cFonts\u005ccambriaz.ttf
p2681
aVC:\u005cWindows\u005cFonts\u005cestre.ttf
p2682
aVC:\u005cWindows\u005cFonts\u005cWICKCNI_.TTF
p2683
aVC:\u005cWindows\u005cFonts\u005cupcibi.ttf
p2684
aVc:\u005cwindows\u005cfonts\u005cesstix4_.ttf
p2685
aVc:\u005cwindows\u005cfonts\u005cmsjhbd.ttf
p2686
aVC:\u005cWindows\u005cFonts\u005csegoeuii.ttf
p2687
aVC:\u005cWindows\u005cFonts\u005cDejaVuSansMono.ttf
p2688
aVc:\u005cwindows\u005cfonts\u005csegoeui.ttf
p2689
aVC:\u005cWindows\u005cFonts\u005cmangal.ttf
p2690
aVC:\u005cWindows\u005cFonts\u005clvnmbd.ttf
p2691
aVc:\u005cwindows\u005cfonts\u005cangsaui.ttf
p2692
aVC:\u005cWindows\u005cFonts\u005cAMIENNEB.TTF
p2693
aVc:\u005cwindows\u005cfonts\u005ctiger expert.ttf
p2694
aVC:\u005cWindows\u005cFonts\u005csegoeuiz.ttf
p2695
aVc:\u005cwindows\u005cfonts\u005carimo-regular.ttf
p2696
aVc:\u005cwindows\u005cfonts\u005cantquabi.ttf
p2697
aVC:\u005cWindows\u005cFonts\u005cTEENBDIT.TTF
p2698
aVC:\u005cWindows\u005cFonts\u005cITCKRIST.TTF
p2699
aVC:\u005cWindows\u005cFonts\u005cmarlett.ttf
p2700
aVc:\u005cwindows\u005cfonts\u005cbrowab.ttf
p2701
aVc:\u005cwindows\u005cfonts\u005ccorbelb.ttf
p2702
aVc:\u005cwindows\u005cfonts\u005csimpbdo.ttf
p2703
aVC:\u005cWindows\u005cFonts\u005cDejaVuSans-ExtraLight.ttf
p2704
aVC:\u005cWindows\u005cFonts\u005ccatriel regular.ttf
p2705
aVC:\u005cWindows\u005cFonts\u005cESSTIX6_.TTF
p2706
aVC:\u005cWindows\u005cFonts\u005cupcll.ttf
p2707
aVC:\u005cWindows\u005cFonts\u005cupcfbi.ttf
p2708
aVC:\u005cWindows\u005cFonts\u005cGenBkBasBI.ttf
p2709
aVc:\u005cwindows\u005cfonts\u005cantquai.ttf
p2710
aVc:\u005cwindows\u005cfonts\u005cnirmala.ttf
p2711
aVc:\u005cwindows\u005cfonts\u005ccreditvb.ttf
p2712
aVc:\u005cwindows\u005cfonts\u005cesstix14.ttf
p2713
aVC:\u005cWindows\u005cFonts\u005cvrindab.ttf
p2714
aVC:\u005cWindows\u005cFonts\u005ckalingab.ttf
p2715
aVc:\u005cwindows\u005cfonts\u005cheavyheap.ttf
p2716
aVC:\u005cWindows\u005cFonts\u005ccalibrii.ttf
p2717
aVC:\u005cWindows\u005cFonts\u005cgisha.ttf
p2718
aVc:\u005cwindows\u005cfonts\u005cbiondi.ttf
p2719
aVc:\u005cwindows\u005cfonts\u005ccatriel bolditalic.ttf
p2720
aVC:\u005cWindows\u005cFonts\u005cframdit.ttf
p2721
aVc:\u005cwindows\u005cfonts\u005cutsaahi.ttf
p2722
aVc:\u005cwindows\u005cfonts\u005cupcdi.ttf
p2723
aVC:\u005cWindows\u005cFonts\u005ckaiu.ttf
p2724
aVc:\u005cwindows\u005cfonts\u005cstereofi.ttf
p2725
aVC:\u005cWindows\u005cFonts\u005cESSTIX2_.TTF
p2726
aVc:\u005cwindows\u005cfonts\u005cangsauz.ttf
p2727
aVc:\u005cwindows\u005cfonts\u005cvrindab.ttf
p2728
aVc:\u005cwindows\u005cfonts\u005cshonar.ttf
p2729
aVC:\u005cWindows\u005cFonts\u005ctrebucbi.ttf
p2730
aVc:\u005cwindows\u005cfonts\u005cteenbold.ttf
p2731
aVC:\u005cWindows\u005cFonts\u005cTEENBOLD.TTF
p2732
aVC:\u005cWindows\u005cFonts\u005ceuphorigenic_s.ttf
p2733
aVC:\u005cWindows\u005cFonts\u005ccatriel bolditalic.ttf
p2734
aVC:\u005cWindows\u005cFonts\u005cMSUIGHUB.TTF
p2735
aVC:\u005cWindows\u005cFonts\u005cESSTIX15.TTF
p2736
aVc:\u005cwindows\u005cfonts\u005cverdanai.ttf
p2737
aVC:\u005cWindows\u005cFonts\u005cconstanb.ttf
p2738
aVC:\u005cWindows\u005cFonts\u005ceucsymbi.ttf
p2739
aVC:\u005cWindows\u005cFonts\u005cWINGDNG2.TTF
p2740
aVc:\u005cwindows\u005cfonts\u005cutsaah.ttf
p2741
aVc:\u005cwindows\u005cfonts\u005cmsyhbd.ttf
p2742
aVc:\u005cwindows\u005cfonts\u005csymbol.ttf
p2743
aVc:\u005cwindows\u005cfonts\u005csylfaen.ttf
p2744
aVC:\u005cWindows\u005cFonts\u005cmonbaiti.ttf
p2745
aVc:\u005cwindows\u005cfonts\u005cbyington.ttf
p2746
aVC:\u005cWindows\u005cFonts\u005ccalibriz.ttf
p2747
aVc:\u005cwindows\u005cfonts\u005cahronbd.ttf
p2748
aVC:\u005cWindows\u005cFonts\u005cBRADHITC.TTF
p2749
aVc:\u005cwindows\u005cfonts\u005cutsaahb.ttf
p2750
aVC:\u005cWindows\u005cFonts\u005cupcjbi.ttf
p2751
aVC:\u005cWindows\u005cFonts\u005ceuclidb.ttf
p2752
aVc:\u005cwindows\u005cfonts\u005cgenbasbi.ttf
p2753
aVc:\u005cwindows\u005cfonts\u005camienneb.ttf
p2754
aVC:\u005cWindows\u005cFonts\u005ceuclidi.ttf
p2755
aVC:\u005cWindows\u005cFonts\u005cBKANT.TTF
p2756
aVc:\u005cwindows\u005cfonts\u005cearwigfa.ttf
p2757
aVc:\u005cwindows\u005cfonts\u005cteenital.ttf
p2758
aVc:\u005cwindows\u005cfonts\u005ceuclidbi.ttf
p2759
aVC:\u005cWindows\u005cFonts\u005cupcib.ttf
p2760
aVc:\u005cwindows\u005cfonts\u005cgenbkbasr.ttf
p2761
aVC:\u005cWindows\u005cFonts\u005cconstanz.ttf
p2762
aVc:\u005cwindows\u005cfonts\u005cupckl.ttf
p2763
aVc:\u005cwindows\u005cfonts\u005cgadugi.ttf
p2764
aVc:\u005cwindows\u005cfonts\u005cligurino bold.ttf
p2765
aVC:\u005cWindows\u005cFonts\u005cANTQUABI.TTF
p2766
aVc:\u005cwindows\u005cfonts\u005cdejavusans-oblique.ttf
p2767
aVC:\u005cWindows\u005cFonts\u005ctandelle bolditalic.ttf
p2768
aVc:\u005cwindows\u005cfonts\u005cbookosi.ttf
p2769
aVC:\u005cWindows\u005cFonts\u005cligurino italic.ttf
p2770
aVc:\u005cwindows\u005cfonts\u005cupcfi.ttf
p2771
aVC:\u005cWindows\u005cFonts\u005cframd.ttf
p2772
aVC:\u005cWindows\u005cFonts\u005ceucsymi.ttf
p2773
aVc:\u005cwindows\u005cfonts\u005ceumat1.ttf
p2774
aVc:\u005cwindows\u005cfonts\u005ctaile.ttf
p2775
aVC:\u005cWindows\u005cFonts\u005cupckbi.ttf
p2776
aVc:\u005cwindows\u005cfonts\u005cboopee_bold.ttf
p2777
aVc:\u005cwindows\u005cfonts\u005ccalibri.ttf
p2778
aVc:\u005cwindows\u005cfonts\u005cpristina.ttf
p2779
aVC:\u005cWindows\u005cFonts\u005cbrowab.ttf
p2780
aVc:\u005cwindows\u005cfonts\u005cgenbkbasi.ttf
p2781
aVC:\u005cWindows\u005cFonts\u005cAMIENNE_.TTF
p2782
aVC:\u005cWindows\u005cFonts\u005cMaplePi.ttf
p2783
aVC:\u005cWindows\u005cFonts\u005cimpact.ttf
p2784
aVc:\u005cwindows\u005cfonts\u005cupcil.ttf
p2785
aVC:\u005cWindows\u005cFonts\u005cfences.ttf
p2786
aVC:\u005cWindows\u005cFonts\u005cupcel.ttf
p2787
aVC:\u005cWindows\u005cFonts\u005cwingding.ttf
p2788
aVc:\u005cwindows\u005cfonts\u005cfences.ttf
p2789
aVc:\u005cwindows\u005cfonts\u005clatha.ttf
p2790
aVc:\u005cwindows\u005cfonts\u005ccambriai.ttf
p2791
aVC:\u005cWindows\u005cFonts\u005cmangalb.ttf
p2792
aVC:\u005cWindows\u005cFonts\u005ckartika.ttf
p2793
aVc:\u005cwindows\u005cfonts\u005cvani.ttf
p2794
aVc:\u005cwindows\u005cfonts\u005cdejavuserifcondensed.ttf
p2795
aVc:\u005cwindows\u005cfonts\u005cupcdl.ttf
p2796
aVC:\u005cWindows\u005cFonts\u005cupclb.ttf
p2797
aVC:\u005cWindows\u005cFonts\u005ceumat1.ttf
p2798
aVC:\u005cWindows\u005cFonts\u005cMTCORSVA.TTF
p2799
aVC:\u005cWindows\u005cFonts\u005cl_10646.ttf
p2800
aVc:\u005cwindows\u005cfonts\u005cupckbi.ttf
p2801
aVC:\u005cWindows\u005cFonts\u005cSEGOEUISL.TTF
p2802
aVC:\u005cWindows\u005cFonts\u005cANTQUAI.TTF
p2803
aVC:\u005cWindows\u005cFonts\u005cDejaVuSansMono-Oblique.ttf
p2804
aVc:\u005cwindows\u005cfonts\u005ccob_____.ttf
p2805
aVc:\u005cwindows\u005cfonts\u005carialuni.ttf
p2806
aVc:\u005cwindows\u005cfonts\u005caparajbi.ttf
p2807
aVc:\u005cwindows\u005cfonts\u005cebrimabd.ttf
p2808
aVC:\u005cWindows\u005cFonts\u005csegoepr.ttf
p2809
aVC:\u005cWindows\u005cFonts\u005cmicross.ttf
p2810
aVC:\u005cWindows\u005cFonts\u005cWINGDNG3.TTF
p2811
aVC:\u005cWindows\u005cFonts\u005ckokilabi.ttf
p2812
aVC:\u005cWindows\u005cFonts\u005cBLUECOND.TTF
p2813
aVc:\u005cwindows\u005cfonts\u005crefspcl.ttf
p2814
aVC:\u005cWindows\u005cFonts\u005csegoeprb.ttf
p2815
aVC:\u005cWindows\u005cFonts\u005cESSTIX3_.TTF
p2816
aVC:\u005cWindows\u005cFonts\u005cupcfl.ttf
p2817
aVc:\u005cwindows\u005cfonts\u005cmriamc.ttf
p2818
aVc:\u005cwindows\u005cfonts\u005cupcii.ttf
p2819
aVC:\u005cWindows\u005cFonts\u005cDejaVuSerif.ttf
p2820
aVC:\u005cWindows\u005cFonts\u005cverdanai.ttf
p2821
aVC:\u005cWindows\u005cFonts\u005cTEENLITA.TTF
p2822
aVC:\u005cWindows\u005cFonts\u005ctimes.ttf
p2823
aVC:\u005cWindows\u005cFonts\u005ccordiaz.ttf
p2824
aVc:\u005cwindows\u005cfonts\u005csegoepr.ttf
p2825
aVc:\u005cwindows\u005cfonts\u005cmicross.ttf
p2826
aVc:\u005cwindows\u005cfonts\u005ctimes.ttf
p2827
aVc:\u005cwindows\u005cfonts\u005cwingdng2.ttf
p2828
aVc:\u005cwindows\u005cfonts\u005cconsolab.ttf
p2829
aVC:\u005cWindows\u005cFonts\u005cutsaah.ttf
p2830
aVC:\u005cWindows\u005cFonts\u005cPAPYRUS.TTF
p2831
aVc:\u005cwindows\u005cfonts\u005ckalingab.ttf
p2832
aVc:\u005cwindows\u005cfonts\u005cdejavusans.ttf
p2833
aVc:\u005cwindows\u005cfonts\u005cvijayab.ttf
p2834
aVC:\u005cWindows\u005cFonts\u005cDejaVuSansCondensed-Oblique.ttf
p2835
aVc:\u005cwindows\u005cfonts\u005ccouri.ttf
p2836
aVC:\u005cWindows\u005cFonts\u005cshrutib.ttf
p2837
aVc:\u005cwindows\u005cfonts\u005ccordiauz.ttf
p2838
aVc:\u005cwindows\u005cfonts\u005cleelawad.ttf
p2839
aVc:\u005cwindows\u005cfonts\u005carial.ttf
p2840
aVc:\u005cwindows\u005cfonts\u005cshonarb.ttf
p2841
aVC:\u005cWindows\u005cFonts\u005cVani.ttf
p2842
aVc:\u005cwindows\u005cfonts\u005cesstix8_.ttf
p2843
aVc:\u005cwindows\u005cfonts\u005cesstix5_.ttf
p2844
aVc:\u005cwindows\u005cfonts\u005cl_10646.ttf
p2845
aVC:\u005cWindows\u005cFonts\u005cmriamc.ttf
p2846
aVC:\u005cWindows\u005cFonts\u005cseguisb.ttf
p2847
aVc:\u005cwindows\u005cfonts\u005ccatriel bold.ttf
p2848
aVc:\u005cwindows\u005cfonts\u005cdejavusansmono-bold.ttf
p2849
aVC:\u005cWindows\u005cFonts\u005cHEO_____.ttf
p2850
aVc:\u005cwindows\u005cfonts\u005ceuphorigenic_s.ttf
p2851
aVc:\u005cwindows\u005cfonts\u005crefsan.ttf
p2852
aVc:\u005cwindows\u005cfonts\u005cbookosb.ttf
p2853
aVc:\u005cwindows\u005cfonts\u005ceuclid.ttf
p2854
aVc:\u005cwindows\u005cfonts\u005cbluecond.ttf
p2855
aVc:\u005cwindows\u005cfonts\u005cupcdbi.ttf
p2856
aVc:\u005cwindows\u005cfonts\u005cligurino italic.ttf
p2857
aVC:\u005cWindows\u005cFonts\u005ckokilai.ttf
p2858
aVC:\u005cWindows\u005cFonts\u005cHURRYUP.TTF
p2859
aVc:\u005cwindows\u005cfonts\u005cpalai.ttf
p2860
aVC:\u005cWindows\u005cFonts\u005cmalgun.ttf
p2861
aVC:\u005cWindows\u005cFonts\u005cHEB_____.ttf
p2862
aVc:\u005cwindows\u005cfonts\u005ccalibrib.ttf
p2863
aVC:\u005cWindows\u005cFonts\u005cArimo-Italic.ttf
p2864
aVC:\u005cWindows\u005cFonts\u005cESSTIX9_.TTF
p2865
aVc:\u005cwindows\u005cfonts\u005cmufferaw.ttf
p2866
aVc:\u005cwindows\u005cfonts\u005cupcjb.ttf
p2867
aVC:\u005cWindows\u005cFonts\u005cDejaVuSerif-BoldItalic.ttf
p2868
aVc:\u005cwindows\u005cfonts\u005cdavidbd.ttf
p2869
aVC:\u005cWindows\u005cFonts\u005cleelawdb.ttf
p2870
aVC:\u005cWindows\u005cFonts\u005cconstani.ttf
p2871
aVc:\u005cwindows\u005cfonts\u005cdejavusanscondensed-boldoblique.ttf
p2872
aVc:\u005cwindows\u005cfonts\u005ckokilai.ttf
p2873
aVC:\u005cWindows\u005cFonts\u005ccourbd.ttf
p2874
aVC:\u005cWindows\u005cFonts\u005cANTQUAB.TTF
p2875
aVc:\u005cwindows\u005cfonts\u005cconstan.ttf
p2876
aVC:\u005cWindows\u005cFonts\u005cHEN_____.ttf
p2877
aVc:\u005cwindows\u005cfonts\u005carnprior.ttf
p2878
aVc:\u005cwindows\u005cfonts\u005csimpfxo.ttf
p2879
aVc:\u005cwindows\u005cfonts\u005cmangal.ttf
p2880
aVc:\u005cwindows\u005cfonts\u005ctrebuc.ttf
p2881
aVC:\u005cWindows\u005cFonts\u005cBLUEHIGH.TTF
p2882
aVc:\u005cwindows\u005cfonts\u005csimhei.ttf
p2883
aVc:\u005cwindows\u005cfonts\u005claoui.ttf
p2884
aVc:\u005cwindows\u005cfonts\u005clucon.ttf
p2885
aVc:\u005cwindows\u005cfonts\u005ccour.ttf
p2886
aVc:\u005cwindows\u005cfonts\u005cminyn___.ttf
p2887
aVC:\u005cWindows\u005cFonts\u005clatha.ttf
p2888
aVC:\u005cWindows\u005cFonts\u005cbrowaui.ttf
p2889
aVc:\u005cwindows\u005cfonts\u005cdaunpenh.ttf
p2890
aVC:\u005cWindows\u005cFonts\u005cCandarab.ttf
p2891
aVc:\u005cwindows\u005cfonts\u005cbluehigh.ttf
p2892
aVc:\u005cwindows\u005cfonts\u005ctradbdo.ttf
p2893
aVC:\u005cWindows\u005cFonts\u005cBLUEBOLD.TTF
p2894
aVC:\u005cWindows\u005cFonts\u005cariblk.ttf
p2895
aVC:\u005cWindows\u005cFonts\u005ccorbel.ttf
p2896
aVC:\u005cWindows\u005cFonts\u005cmsyhbd.ttf
p2897
aVc:\u005cwindows\u005cfonts\u005cdejavuserif-bold.ttf
p2898
aVC:\u005cWindows\u005cFonts\u005cgautami.ttf
p2899
aVC:\u005cWindows\u005cFonts\u005cmsyi.ttf
p2900
aVc:\u005cwindows\u005cfonts\u005cdejavuserifcondensed-italic.ttf
p2901
aVC:\u005cWindows\u005cFonts\u005ccalibrib.ttf
p2902
aVC:\u005cWindows\u005cFonts\u005clvnm.ttf
p2903
aVC:\u005cWindows\u005cFonts\u005cBOOKOSB.TTF
p2904
aVc:\u005cwindows\u005cfonts\u005cupcdb.ttf
p2905
aVC:\u005cWindows\u005cFonts\u005cDejaVuSerifCondensed-Bold.ttf
p2906
aVC:\u005cWindows\u005cFonts\u005cnrkis.ttf
p2907
aVc:\u005cwindows\u005cfonts\u005cesstix1_.ttf
p2908
aVc:\u005cwindows\u005cfonts\u005cverdanab.ttf
p2909
aVC:\u005cWindows\u005cFonts\u005cphagspab.ttf
p2910
aVc:\u005cwindows\u005cfonts\u005csybig___.ttf
p2911
aVc:\u005cwindows\u005cfonts\u005ccourbi.ttf
p2912
aVC:\u005cWindows\u005cFonts\u005cGenBkBasR.ttf
p2913
aVc:\u005cwindows\u005cfonts\u005cphagspa.ttf
p2914
aVc:\u005cwindows\u005cfonts\u005cwingdng3.ttf
p2915
aVC:\u005cWindows\u005cFonts\u005cDejaVuSerifCondensed-BoldItalic.ttf
p2916
aVC:\u005cWindows\u005cFonts\u005ceucsym.ttf
p2917
aVc:\u005cwindows\u005cfonts\u005cdejavuserif-italic.ttf
p2918
aVC:\u005cWindows\u005cFonts\u005cbrowauz.ttf
p2919
aVC:\u005cWindows\u005cFonts\u005cJUICE___.TTF
p2920
aVC:\u005cWindows\u005cFonts\u005cconsola.ttf
p2921
aVc:\u005cwindows\u005cfonts\u005cwickcn__.ttf
p2922
aVC:\u005cWindows\u005cFonts\u005cshruti.ttf
p2923
aVC:\u005cWindows\u005cFonts\u005copens___.ttf
p2924
aVC:\u005cWindows\u005cFonts\u005cangsa.ttf
p2925
aVc:\u005cwindows\u005cfonts\u005ceumat2b.ttf
p2926
aVC:\u005cWindows\u005cFonts\u005cangsab.ttf
p2927
aVC:\u005cWindows\u005cFonts\u005cARIALN.TTF
p2928
aVC:\u005cWindows\u005cFonts\u005cLHANDW.TTF
p2929
aVC:\u005cWindows\u005cFonts\u005csegoeuib.ttf
p2930
aVC:\u005cWindows\u005cFonts\u005cebrima.ttf
p2931
aVC:\u005cWindows\u005cFonts\u005cCandaraz.ttf
p2932
aVC:\u005cWindows\u005cFonts\u005cupckl.ttf
p2933
aVc:\u005cwindows\u005cfonts\u005ceuclidi.ttf
p2934
aVc:\u005cwindows\u005cfonts\u005cbkant.ttf
p2935
aVC:\u005cWindows\u005cFonts\u005cdaunpenh.ttf
p2936
aVC:\u005cWindows\u005cFonts\u005cconsolai.ttf
p2937
aVC:\u005cWindows\u005cFonts\u005cangsau.ttf
p2938
aVc:\u005cwindows\u005cfonts\u005csymbol tiger.ttf
p2939
aVc:\u005cwindows\u005cfonts\u005cgarabd.ttf
p2940
aVC:\u005cWindows\u005cFonts\u005cmsuighur.ttf
p2941
aVc:\u005cwindows\u005cfonts\u005ckokilabi.ttf
p2942
aVc:\u005cwindows\u005cfonts\u005cberylium.ttf
p2943
aVC:\u005cWindows\u005cFonts\u005ctimesbi.ttf
p2944
aVc:\u005cwindows\u005cfonts\u005cgisha.ttf
p2945
aVc:\u005cwindows\u005cfonts\u005ccreditvz.ttf
p2946
aVc:\u005cwindows\u005cfonts\u005cdejavusansmono-boldoblique.ttf
p2947
aVC:\u005cWindows\u005cFonts\u005caparajb.ttf
p2948
aVC:\u005cWindows\u005cFonts\u005cArimo-Bold.ttf
p2949
aVc:\u005cwindows\u005cfonts\u005carialbi.ttf
p2950
aVC:\u005cWindows\u005cFonts\u005ctandelle regular.ttf
p2951
aVc:\u005cwindows\u005cfonts\u005ctrebucit.ttf
p2952
aVC:\u005cWindows\u005cFonts\u005cBOOKOSI.TTF
p2953
aVc:\u005cwindows\u005cfonts\u005carimo-bolditalic.ttf
p2954
aVc:\u005cwindows\u005cfonts\u005cbluebold.ttf
p2955
aVc:\u005cwindows\u005cfonts\u005cminyni__.ttf
p2956
aVc:\u005cwindows\u005cfonts\u005ccourbd.ttf
p2957
aVC:\u005cWindows\u005cFonts\u005craavib.ttf
p2958
aVc:\u005cwindows\u005cfonts\u005csimsunb.ttf
p2959
aVc:\u005cwindows\u005cfonts\u005cshrutib.ttf
p2960
aVc:\u005cwindows\u005cfonts\u005copens___.ttf
p2961
aVc:\u005cwindows\u005cfonts\u005cbrowaui.ttf
p2962
aVC:\u005cWindows\u005cFonts\u005cREFSAN.TTF
p2963
aVC:\u005cWindows\u005cFonts\u005cPUPCAT__.TTF
p2964
aVc:\u005cwindows\u005cfonts\u005cframdit.ttf
p2965
aVC:\u005cWindows\u005cFonts\u005ceuclidbi.ttf
p2966
aVc:\u005cwindows\u005cfonts\u005cmistral.ttf
p2967
aVC:\u005cWindows\u005cFonts\u005cGADUGIB.TTF
p2968
aVc:\u005cwindows\u005cfonts\u005cmriam.ttf
p2969
aVC:\u005cWindows\u005cFonts\u005cupcii.ttf
p2970
aVc:\u005cwindows\u005cfonts\u005cmsuighub.ttf
p2971
aVc:\u005cwindows\u005cfonts\u005ctimesbi.ttf
p2972
aVc:\u005cwindows\u005cfonts\u005cmangalb.ttf
p2973
aVC:\u005cWindows\u005cFonts\u005ceufrak.ttf
p2974
aVc:\u005cwindows\u005cfonts\u005ccomicbd.ttf
p2975
aVc:\u005cwindows\u005cfonts\u005ccandarab.ttf
p2976
aVc:\u005cwindows\u005cfonts\u005ctempsitc.ttf
p2977
aVC:\u005cWindows\u005cFonts\u005cgeorgiaz.ttf
p2978
aVc:\u005cwindows\u005cfonts\u005cupclb.ttf
p2979
aVc:\u005cwindows\u005cfonts\u005cbella_donna.ttf
p2980
aVC:\u005cWindows\u005cFonts\u005cTHR_____.ttf
p2981
aVC:\u005cWindows\u005cFonts\u005cmsjh.ttf
p2982
aVC:\u005cWindows\u005cFonts\u005cutsaahb.ttf
p2983
aVC:\u005cWindows\u005cFonts\u005carialbi.ttf
p2984
aVc:\u005cwindows\u005cfonts\u005cupcebi.ttf
p2985
aVc:\u005cwindows\u005cfonts\u005ccalibrili.ttf
p2986
aVC:\u005cWindows\u005cFonts\u005cDejaVuSans.ttf
p2987
aVc:\u005cwindows\u005cfonts\u005cpalab.ttf
p2988
aVc:\u005cwindows\u005cfonts\u005cesstix9_.ttf
p2989
aVC:\u005cWindows\u005cFonts\u005ccambriai.ttf
p2990
aVC:\u005cWindows\u005cFonts\u005cCREDITVZ.TTF
p2991
aVc:\u005cwindows\u005cfonts\u005ceufrak.ttf
p2992
aVC:\u005cWindows\u005cFonts\u005cTEENLITE.TTF
p2993
aVC:\u005cWindows\u005cFonts\u005cupcdbi.ttf
p2994
aVc:\u005cwindows\u005cfonts\u005ccandarai.ttf
p2995
aVc:\u005cwindows\u005cfonts\u005csegoesc.ttf
p2996
aVC:\u005cWindows\u005cFonts\u005cDejaVuSansMono-Bold.ttf
p2997
aVc:\u005cwindows\u005cfonts\u005caparaj.ttf
p2998
aVC:\u005cWindows\u005cFonts\u005cMINYN___.TTF
p2999
aVc:\u005cwindows\u005cfonts\u005ceuextrab.ttf
p3000
aVc:\u005cwindows\u005cfonts\u005cbrowaub.ttf
p3001
aVc:\u005cwindows\u005cfonts\u005cconstanb.ttf
p3002
aVC:\u005cWindows\u005cFonts\u005cSTEREOFI.TTF
p3003
aVC:\u005cWindows\u005cFonts\u005cBOOKOS.TTF
p3004
aVc:\u005cwindows\u005cfonts\u005ceucsymbi.ttf
p3005
aVc:\u005cwindows\u005cfonts\u005cgautami.ttf
p3006
aVc:\u005cwindows\u005cfonts\u005cdejavusanscondensed-oblique.ttf
p3007
aVC:\u005cWindows\u005cFonts\u005cWICKCN__.TTF
p3008
aVC:\u005cWindows\u005cFonts\u005ctimesi.ttf
p3009
aVc:\u005cwindows\u005cfonts\u005cgothicbi.ttf
p3010
aVC:\u005cWindows\u005cFonts\u005cvijayab.ttf
p3011
aVC:\u005cWindows\u005cFonts\u005cGabriola.ttf
p3012
aVc:\u005cwindows\u005cfonts\u005cneuropol.ttf
p3013
aVc:\u005cwindows\u005cfonts\u005ccalibriz.ttf
p3014
aVc:\u005cwindows\u005cfonts\u005ciskpota.ttf
p3015
aVC:\u005cWindows\u005cFonts\u005cSYP_____.ttf
p3016
aVC:\u005cWindows\u005cFonts\u005cCandarai.ttf
p3017
aVc:\u005cwindows\u005cfonts\u005cburnstow.ttf
p3018
aVC:\u005cWindows\u005cFonts\u005cangsauz.ttf
p3019
aVc:\u005cwindows\u005cfonts\u005cgarait.ttf
p3020
aVC:\u005cWindows\u005cFonts\u005ctrebucbd.ttf
p3021
aVc:\u005cwindows\u005cfonts\u005cupcib.ttf
p3022
aVc:\u005cwindows\u005cfonts\u005cesstix3_.ttf
p3023
aVC:\u005cWindows\u005cFonts\u005ccouri.ttf
p3024
aVc:\u005cwindows\u005cfonts\u005cnirmalab.ttf
p3025
aVC:\u005cWindows\u005cFonts\u005ccordiauz.ttf
p3026
aVc:\u005cwindows\u005cfonts\u005csymbol tiger expert.ttf
p3027
aVc:\u005cwindows\u005cfonts\u005ccordiab.ttf
p3028
aVc:\u005cwindows\u005cfonts\u005ceuphemia.ttf
p3029
aVc:\u005cwindows\u005cfonts\u005ccentury.ttf
p3030
aVc:\u005cwindows\u005cfonts\u005cangsab.ttf
p3031
aVC:\u005cWindows\u005cFonts\u005ctandelle italic.ttf
p3032
aVC:\u005cWindows\u005cFonts\u005cligurino.ttf
p3033
aVc:\u005cwindows\u005cfonts\u005cesstix13.ttf
p3034
aVc:\u005cwindows\u005cfonts\u005cboopee_regular.ttf
p3035
aVC:\u005cWindows\u005cFonts\u005ckalinga.ttf
p3036
aVc:\u005cwindows\u005cfonts\u005cconstanz.ttf
p3037
aVC:\u005cWindows\u005cFonts\u005cBLUEHIGD.TTF
p3038
aVC:\u005cWindows\u005cFonts\u005caparaj.ttf
p3039
aVc:\u005cwindows\u005cfonts\u005carialnb.ttf
p3040
aVC:\u005cWindows\u005cFonts\u005cGenBasR.ttf
p3041
aVc:\u005cwindows\u005cfonts\u005coutlook.ttf
p3042
aVC:\u005cWindows\u005cFonts\u005csylfaen.ttf
p3043
aVC:\u005cWindows\u005cFonts\u005ciskpotab.ttf
p3044
aVc:\u005cwindows\u005cfonts\u005ccandara.ttf
p3045
aVC:\u005cWindows\u005cFonts\u005cmvboli.ttf
p3046
aVc:\u005cwindows\u005cfonts\u005cvijaya.ttf
p3047
aVc:\u005cwindows\u005cfonts\u005carialn.ttf
p3048
aVC:\u005cWindows\u005cFonts\u005cESSTIX4_.TTF
p3049
aVC:\u005cWindows\u005cFonts\u005cBLUEHIGL.TTF
p3050
aVC:\u005cWindows\u005cFonts\u005ccordiai.ttf
p3051
aVC:\u005cWindows\u005cFonts\u005csegoeuil.ttf
p3052
aVC:\u005cWindows\u005cFonts\u005csimpbdo.ttf
p3053
aVC:\u005cWindows\u005cFonts\u005ctungab.ttf
p3054
aVC:\u005cWindows\u005cFonts\u005cmriam.ttf
p3055
aVc:\u005cwindows\u005cfonts\u005cminynbi_.ttf
p3056
aVC:\u005cWindows\u005cFonts\u005cmajallab.ttf
p3057
aVC:\u005cWindows\u005cFonts\u005cSymbol Tiger Expert.ttf
p3058
aVc:\u005cwindows\u005cfonts\u005cwickcnbi.ttf
p3059
aVc:\u005cwindows\u005cfonts\u005cteenbdit.ttf
p3060
aVC:\u005cWindows\u005cFonts\u005ccomicbd.ttf
p3061
aVC:\u005cWindows\u005cFonts\u005ciskpota.ttf
p3062
aVc:\u005cwindows\u005cfonts\u005cesstix16.ttf
p3063
aVc:\u005cwindows\u005cfonts\u005cupcjl.ttf
p3064
aVC:\u005cWindows\u005cFonts\u005cHeavyHeap.ttf
p3065
aVC:\u005cWindows\u005cFonts\u005cTEEN____.TTF
p3066
aVc:\u005cwindows\u005cfonts\u005ctiger.ttf
p3067
aVC:\u005cWindows\u005cFonts\u005cShonar.ttf
p3068
aVc:\u005cwindows\u005cfonts\u005cgenbasr.ttf
p3069
aVC:\u005cWindows\u005cFonts\u005cBSSYM7.TTF
p3070
aVc:\u005cwindows\u005cfonts\u005cmsyi.ttf
p3071
aVc:\u005cwindows\u005cfonts\u005cwingding.ttf
p3072
aVC:\u005cWindows\u005cFonts\u005csimkai.ttf
p3073
aVC:\u005cWindows\u005cFonts\u005ctradbdo.ttf
p3074
aVc:\u005cwindows\u005cfonts\u005cbaveuse.ttf
p3075
aVC:\u005cWindows\u005cFonts\u005csimhei.ttf
p3076
aVC:\u005cWindows\u005cFonts\u005cbrowai.ttf
p3077
aVC:\u005cWindows\u005cFonts\u005ccorbelz.ttf
p3078
aVC:\u005cWindows\u005cFonts\u005cESSTIX14.TTF
p3079
aVC:\u005cWindows\u005cFonts\u005cupcji.ttf
p3080
aVc:\u005cwindows\u005cfonts\u005csegoescb.ttf
p3081
aVc:\u005cwindows\u005cfonts\u005cdejavuserifcondensed-bolditalic.ttf
p3082
aVC:\u005cWindows\u005cFonts\u005cTHBI____.ttf
p3083
aVC:\u005cWindows\u005cFonts\u005carialbd.ttf
p3084
aVC:\u005cWindows\u005cFonts\u005ccomic.ttf
p3085
aVC:\u005cWindows\u005cFonts\u005cCOBO____.ttf
p3086
aVc:\u005cwindows\u005cfonts\u005cjuice___.ttf
p3087
aVC:\u005cWindows\u005cFonts\u005cFRSCRIPT.TTF
p3088
aVc:\u005cwindows\u005cfonts\u005cangsa.ttf
p3089
aVc:\u005cwindows\u005cfonts\u005ccalibril.ttf
p3090
aVC:\u005cWindows\u005cFonts\u005cMISTRAL.TTF
p3091
aVc:\u005cwindows\u005cfonts\u005ccoo_____.ttf
p3092
aVc:\u005cwindows\u005cfonts\u005cplanetbe.ttf
p3093
aVC:\u005cWindows\u005cFonts\u005cMINYNI__.TTF
p3094
aVc:\u005cwindows\u005cfonts\u005ccomic.ttf
p3095
aVC:\u005cWindows\u005cFonts\u005cGARABD.TTF
p3096
aVC:\u005cWindows\u005cFonts\u005ctimesbd.ttf
p3097
aVc:\u005cwindows\u005cfonts\u005ctandelle regular.ttf
p3098
aVc:\u005cwindows\u005cfonts\u005cdejavusansmono.ttf
p3099
aVC:\u005cWindows\u005cFonts\u005cupcjl.ttf
p3100
aVC:\u005cWindows\u005cFonts\u005cupcil.ttf
p3101
aVc:\u005cwindows\u005cfonts\u005cantquab.ttf
p3102
aVc:\u005cwindows\u005cfonts\u005cfreescpt.ttf
p3103
aVC:\u005cWindows\u005cFonts\u005cESSTIX17.TTF
p3104
aVc:\u005cwindows\u005cfonts\u005cbiondi light.ttf
p3105
aVC:\u005cWindows\u005cFonts\u005cCREDITVI.TTF
p3106
aVC:\u005cWindows\u005cFonts\u005cutsaahbi.ttf
p3107
aVC:\u005cWindows\u005cFonts\u005cmtextra.ttf
p3108
aVC:\u005cWindows\u005cFonts\u005cHEBO____.ttf
p3109
aVc:\u005cwindows\u005cfonts\u005cupcjbi.ttf
p3110
aVc:\u005cwindows\u005cfonts\u005cupclbi.ttf
p3111
aVc:\u005cwindows\u005cfonts\u005cfrank.ttf
p3112
aVC:\u005cWindows\u005cFonts\u005cbyington_italic.ttf
p3113
aVC:\u005cWindows\u005cFonts\u005chuxtable.ttf
p3114
aVc:\u005cwindows\u005cfonts\u005cpapyrus.ttf
p3115
aVC:\u005cWindows\u005cFonts\u005ctandelle bold.ttf
p3116
aVC:\u005cWindows\u005cFonts\u005cmufferaw.ttf
p3117
aVc:\u005cwindows\u005cfonts\u005cteenlita.ttf
p3118
aVc:\u005cwindows\u005cfonts\u005cvelvendc.ttf
p3119
aVc:\u005cwindows\u005cfonts\u005caparajb.ttf
p3120
aVC:\u005cWindows\u005cFonts\u005cdavidbd.ttf
p3121
aVc:\u005cwindows\u005cfonts\u005cariblk.ttf
p3122
aVC:\u005cWindows\u005cFonts\u005cntailu.ttf
p3123
aVC:\u005cWindows\u005cFonts\u005cEARWIGFA.TTF
p3124
aVC:\u005cWindows\u005cFonts\u005cDejaVuSans-Bold.ttf
p3125
aVc:\u005cwindows\u005cfonts\u005cconsolaz.ttf
p3126
aVc:\u005cwindows\u005cfonts\u005cbyington_italic.ttf
p3127
aVc:\u005cwindows\u005cfonts\u005craavib.ttf
p3128
aVc:\u005cwindows\u005cfonts\u005cupcei.ttf
p3129
aVc:\u005cwindows\u005cfonts\u005cupckb.ttf
p3130
aVC:\u005cWindows\u005cFonts\u005cVanib.ttf
p3131
aVC:\u005cWindows\u005cFonts\u005cTEMPSITC.TTF
p3132
aVC:\u005cWindows\u005cFonts\u005ctrebuc.ttf
p3133
aVC:\u005cWindows\u005cFonts\u005ccorbeli.ttf
p3134
aVc:\u005cwindows\u005cfonts\u005cdejavuserif-bolditalic.ttf
p3135
aVC:\u005cWindows\u005cFonts\u005cSYBIG___.TTF
p3136
aVC:\u005cWindows\u005cFonts\u005cgishabd.ttf
p3137
aVC:\u005cWindows\u005cFonts\u005cboopee_regular.ttf
p3138
aVC:\u005cWindows\u005cFonts\u005cconsolab.ttf
p3139
aVC:\u005cWindows\u005cFonts\u005cArimo-BoldItalic.ttf
p3140
aVc:\u005cwindows\u005cfonts\u005cesstix11.ttf
p3141
aVc:\u005cwindows\u005cfonts\u005cnyala.ttf
p3142
aVc:\u005cwindows\u005cfonts\u005cupcll.ttf
p3143
aVc:\u005cwindows\u005cfonts\u005ccorbeli.ttf
p3144
aVc:\u005cwindows\u005cfonts\u005cligurino.ttf
p3145
aVC:\u005cWindows\u005cFonts\u005cTHI_____.ttf
p3146
aVC:\u005cWindows\u005cFonts\u005cDejaVuSansCondensed.ttf
p3147
aVC:\u005cWindows\u005cFonts\u005cGOTHICB.TTF
p3148
aVc:\u005cwindows\u005cfonts\u005cgenbasi.ttf
p3149
aVC:\u005cWindows\u005cFonts\u005csegoesc.ttf
p3150
aVC:\u005cWindows\u005cFonts\u005cgeorgia.ttf
p3151
aVc:\u005cwindows\u005cfonts\u005cbookosbi.ttf
p3152
aVc:\u005cwindows\u005cfonts\u005ccalibrii.ttf
p3153
aVc:\u005cwindows\u005cfonts\u005ctimesi.ttf
p3154
aVc:\u005cwindows\u005cfonts\u005cupcfl.ttf
p3155
aVc:\u005cwindows\u005cfonts\u005chuxtable.ttf
p3156
aVC:\u005cWindows\u005cFonts\u005cupcdb.ttf
p3157
aVC:\u005cWindows\u005cFonts\u005ccourbi.ttf
p3158
aVC:\u005cWindows\u005cFonts\u005ccorbelb.ttf
p3159
aVC:\u005cWindows\u005cFonts\u005cCON_____.ttf
p3160
aVc:\u005cwindows\u005cfonts\u005cmsuighur.ttf
p3161
aVc:\u005cwindows\u005cfonts\u005cupcfb.ttf
p3162
aVC:\u005cWindows\u005cFonts\u005cpalai.ttf
p3163
aVC:\u005cWindows\u005cFonts\u005ceufrakb.ttf
p3164
aVC:\u005cWindows\u005cFonts\u005cangsaub.ttf
p3165
aVC:\u005cWindows\u005cFonts\u005cNIRMALAB.TTF
p3166
aVC:\u005cWindows\u005cFonts\u005cLaoUIb.ttf
p3167
aVC:\u005cWindows\u005cFonts\u005caparajbi.ttf
p3168
aVC:\u005cWindows\u005cFonts\u005ccordia.ttf
p3169
aVc:\u005cwindows\u005cfonts\u005cheo_____.ttf
p3170
aVc:\u005cwindows\u005cfonts\u005cmt extra tiger.ttf
p3171
aVc:\u005cwindows\u005cfonts\u005ccordiaui.ttf
p3172
aVC:\u005cWindows\u005cFonts\u005cGARA.TTF
p3173
aVC:\u005cWindows\u005cFonts\u005cnyala.ttf
p3174
aVc:\u005cwindows\u005cfonts\u005cgothic.ttf
p3175
aVc:\u005cwindows\u005cfonts\u005cmalgunbd.ttf
p3176
aVc:\u005cwindows\u005cfonts\u005cnrkis.ttf
p3177
aVC:\u005cWindows\u005cFonts\u005cShonarb.ttf
p3178
aVc:\u005cwindows\u005cfonts\u005cbluehigl.ttf
p3179
aVC:\u005cWindows\u005cFonts\u005cwebdings.ttf
p3180
aVc:\u005cwindows\u005cfonts\u005cntailu.ttf
p3181
aVc:\u005cwindows\u005cfonts\u005ckartikab.ttf
p3182
aVc:\u005cwindows\u005cfonts\u005cdavid.ttf
p3183
aVC:\u005cWindows\u005cFonts\u005ccalibrili.ttf
p3184
aVc:\u005cwindows\u005cfonts\u005cgara.ttf
p3185
aVC:\u005cWindows\u005cFonts\u005cbrowau.ttf
p3186
aVc:\u005cwindows\u005cfonts\u005chen_____.ttf
p3187
aVc:\u005cwindows\u005cfonts\u005cdejavuserif.ttf
p3188
aVc:\u005cwindows\u005cfonts\u005cupcfbi.ttf
p3189
aVc:\u005cwindows\u005cfonts\u005cleelawdb.ttf
p3190
aVc:\u005cwindows\u005cfonts\u005cgeorgiaz.ttf
p3191
aVc:\u005cwindows\u005cfonts\u005ccarbonbl.ttf
p3192
aVC:\u005cWindows\u005cFonts\u005cbrowa.ttf
p3193
aVC:\u005cWindows\u005cFonts\u005cmsjhbd.ttf
p3194
aVc:\u005cwindows\u005cfonts\u005cwebdings.ttf
p3195
aVC:\u005cWindows\u005cFonts\u005cGenBkBasI.ttf
p3196
aVc:\u005cwindows\u005cfonts\u005camienne_.ttf
p3197
aVC:\u005cWindows\u005cFonts\u005cupclbi.ttf
p3198
aVC:\u005cWindows\u005cFonts\u005candlso.ttf
p3199
aVC:\u005cWindows\u005cFonts\u005cARIALNI.TTF
p3200
aVC:\u005cWindows\u005cFonts\u005cbyington_bold.ttf
p3201
aVc:\u005cwindows\u005cfonts\u005ctandelle bold.ttf
p3202
aVC:\u005cWindows\u005cFonts\u005ceumat1b.ttf
p3203
aVc:\u005cwindows\u005cfonts\u005cvanib.ttf
p3204
aVc:\u005cwindows\u005cfonts\u005cwickcni_.ttf
p3205
aVc:\u005cwindows\u005cfonts\u005cconsolai.ttf
p3206
aVc:\u005cwindows\u005cfonts\u005cgrad_regular.otf
p3207
aVC:\u005cWindows\u005cFonts\u005cMP______.ttf
p3208
aVC:\u005cWindows\u005cFonts\u005cBURNSTOW.TTF
p3209
aVC:\u005cWindows\u005cFonts\u005cligurino condensed.ttf
p3210
aVc:\u005cwindows\u005cfonts\u005cmsjh.ttf
p3211
aVc:\u005cwindows\u005cfonts\u005cgeorgia.ttf
p3212
aVC:\u005cWindows\u005cFonts\u005cGrad_Regular.otf
p3213
aVc:\u005cwindows\u005cfonts\u005cbyington_bold.ttf
p3214
aVC:\u005cWindows\u005cFonts\u005cverdana.ttf
p3215
aVc:\u005cwindows\u005cfonts\u005csegoeuii.ttf
p3216
aVc:\u005cwindows\u005cfonts\u005cfrscript.ttf
p3217
aVc:\u005cwindows\u005cfonts\u005cupcli.ttf
p3218
aVc:\u005cwindows\u005cfonts\u005cmonbaiti.ttf
p3219
aVC:\u005cWindows\u005cFonts\u005cARIALNBI.TTF
p3220
aVc:\u005cwindows\u005cfonts\u005ceucsym.ttf
p3221
aVc:\u005cwindows\u005cfonts\u005ckaiu.ttf
p3222
aVC:\u005cWindows\u005cFonts\u005cntailub.ttf
p3223
aVc:\u005cwindows\u005cfonts\u005ccorbel.ttf
p3224
aVC:\u005cWindows\u005cFonts\u005csegoeui.ttf
p3225
aVC:\u005cWindows\u005cFonts\u005cBERYLIUM.TTF
p3226
aVc:\u005cwindows\u005cfonts\u005ckokila.ttf
p3227
aVc:\u005cwindows\u005cfonts\u005cheb_____.ttf
p3228
aVc:\u005cwindows\u005cfonts\u005cesstix6_.ttf
p3229
aVC:\u005cWindows\u005cFonts\u005cutsaahi.ttf
p3230
aVc:\u005cwindows\u005cfonts\u005ctimesbd.ttf
p3231
aVc:\u005cwindows\u005cfonts\u005cmajallab.ttf
p3232
aVc:\u005cwindows\u005cfonts\u005cbrowaz.ttf
p3233
aVC:\u005cWindows\u005cFonts\u005cCREDITVB.TTF
p3234
aVC:\u005cWindows\u005cFonts\u005cupcdi.ttf
p3235
aVC:\u005cWindows\u005cFonts\u005cbrowaub.ttf
p3236
aVC:\u005cWindows\u005cFonts\u005caparaji.ttf
p3237
aVc:\u005cwindows\u005cfonts\u005ccordiau.ttf
p3238
aVc:\u005cwindows\u005cfonts\u005cupceb.ttf
p3239
aVc:\u005cwindows\u005cfonts\u005csegoeuisl.ttf
p3240
aVc:\u005cwindows\u005cfonts\u005ceuclidb.ttf
p3241
aVC:\u005cWindows\u005cFonts\u005cpalab.ttf
p3242
aVC:\u005cWindows\u005cFonts\u005cSymbol Tiger.ttf
p3243
aVc:\u005cwindows\u005cfonts\u005ckredit1.ttf
p3244
aVC:\u005cWindows\u005cFonts\u005cmsyh.ttf
p3245
aVC:\u005cWindows\u005cFonts\u005cARNPRIOR.TTF
p3246
aVC:\u005cWindows\u005cFonts\u005carial.ttf
p3247
aVc:\u005cwindows\u005cfonts\u005ccorbelz.ttf
p3248
aVC:\u005cWindows\u005cFonts\u005cGenBasB.ttf
p3249
aVc:\u005cwindows\u005cfonts\u005cthb_____.ttf
p3250
aVC:\u005cWindows\u005cFonts\u005ctahoma.ttf
p3251
aVC:\u005cWindows\u005cFonts\u005ctrado.ttf
p3252
aVC:\u005cWindows\u005cFonts\u005cDejaVuSerif-Bold.ttf
p3253
aVc:\u005cwindows\u005cfonts\u005cmaplepi.ttf
p3254
aVc:\u005cwindows\u005cfonts\u005cthi_____.ttf
p3255
aVC:\u005cWindows\u005cFonts\u005cfrank.ttf
p3256
aVc:\u005cwindows\u005cfonts\u005csegoeprb.ttf
p3257
aVC:\u005cWindows\u005cFonts\u005csimsunb.ttf
p3258
aVc:\u005cwindows\u005cfonts\u005cangsaz.ttf
p3259
aVc:\u005cwindows\u005cfonts\u005cesstix17.ttf
p3260
aVc:\u005cwindows\u005cfonts\u005ccreditvi.ttf
p3261
aVC:\u005cWindows\u005cFonts\u005cNIRMALA.TTF
p3262
aVC:\u005cWindows\u005cFonts\u005cboopee_bold.ttf
p3263
aVC:\u005cWindows\u005cFonts\u005cahronbd.ttf
p3264
aVC:\u005cWindows\u005cFonts\u005cverdanab.ttf
p3265
aVc:\u005cwindows\u005cfonts\u005csyp_____.ttf
p3266
aVc:\u005cwindows\u005cfonts\u005ctahoma.ttf
p3267
aVc:\u005cwindows\u005cfonts\u005cgothicb.ttf
p3268
aVc:\u005cwindows\u005cfonts\u005ckalinga.ttf
p3269
aVc:\u005cwindows\u005cfonts\u005ccordiaub.ttf
p3270
aVC:\u005cWindows\u005cFonts\u005csimpo.ttf
p3271
aVc:\u005cwindows\u005cfonts\u005ccobo____.ttf
p3272
aVC:\u005cWindows\u005cFonts\u005cGARAIT.TTF
p3273
aVc:\u005cwindows\u005cfonts\u005candlso.ttf
p3274
aVc:\u005cwindows\u005cfonts\u005cbookos.ttf
p3275
aVc:\u005cwindows\u005cfonts\u005cmoolbor.ttf
p3276
aVc:\u005cwindows\u005cfonts\u005ccatriel regular.ttf
p3277
aVc:\u005cwindows\u005cfonts\u005ccordia.ttf
p3278
aVc:\u005cwindows\u005cfonts\u005cframd.ttf
p3279
aVc:\u005cwindows\u005cfonts\u005ceumat2.ttf
p3280
aVC:\u005cWindows\u005cFonts\u005cLaoUI.ttf
p3281
aVC:\u005cWindows\u005cFonts\u005csymbol.ttf
p3282
aVC:\u005cWindows\u005cFonts\u005cupcjb.ttf
p3283
aVC:\u005cWindows\u005cFonts\u005cBAVEUSE.TTF
p3284
aVc:\u005cwindows\u005cfonts\u005carialnbi.ttf
p3285
aVC:\u005cWindows\u005cFonts\u005cCARBONBL.TTF
p3286
aVc:\u005cwindows\u005cfonts\u005cpupcat__.ttf
p3287
aVc:\u005cwindows\u005cfonts\u005ccordiai.ttf
p3288
aVC:\u005cWindows\u005cFonts\u005cupceb.ttf
p3289
aVc:\u005cwindows\u005cfonts\u005cimpact.ttf
p3290
aVc:\u005cwindows\u005cfonts\u005cmalgun.ttf
p3291
aVC:\u005cWindows\u005cFonts\u005cGOTHICBI.TTF
p3292
aVC:\u005cWindows\u005cFonts\u005cESSTIX7_.TTF
p3293
aVc:\u005cwindows\u005cfonts\u005carialni.ttf
p3294
aVc:\u005cwindows\u005cfonts\u005ceuextra.ttf
p3295
aVC:\u005cWindows\u005cFonts\u005cDejaVuSans-Oblique.ttf
p3296
aVc:\u005cwindows\u005cfonts\u005cgothici.ttf
p3297
aVC:\u005cWindows\u005cFonts\u005ccambriab.ttf
p3298
aVC:\u005cWindows\u005cFonts\u005ccatriel italic.ttf
p3299
aVc:\u005cwindows\u005cfonts\u005cdejavusans-bold.ttf
p3300
aVC:\u005cWindows\u005cFonts\u005cESSTIX12.TTF
p3301
aVC:\u005cWindows\u005cFonts\u005cBerylibi.ttf
p3302
aVc:\u005cwindows\u005cfonts\u005cwaker___.ttf
p3303
aVC:\u005cWindows\u005cFonts\u005cDejaVuSerifCondensed-Italic.ttf
p3304
aVC:\u005cWindows\u005cFonts\u005cESSTIX11.TTF
p3305
aVC:\u005cWindows\u005cFonts\u005cMINYNB__.TTF
p3306
aVc:\u005cwindows\u005cfonts\u005cdejavusans-boldoblique.ttf
p3307
aVc:\u005cwindows\u005cfonts\u005cgeorgiai.ttf
p3308
aVc:\u005cwindows\u005cfonts\u005claouib.ttf
p3309
aVc:\u005cwindows\u005cfonts\u005chimalaya.ttf
p3310
aVc:\u005cwindows\u005cfonts\u005cmp______.ttf
p3311
aVc:\u005cwindows\u005cfonts\u005cpala.ttf
p3312
aVc:\u005cwindows\u005cfonts\u005cdejavuserifcondensed-bold.ttf
p3313
aVC:\u005cWindows\u005cFonts\u005cGenBasI.ttf
p3314
aVc:\u005cwindows\u005cfonts\u005cestre.ttf
p3315
aVC:\u005cWindows\u005cFonts\u005cESSTIX10.TTF
p3316
aVC:\u005cWindows\u005cFonts\u005cBella_Donna.ttf
p3317
aVc:\u005cwindows\u005cfonts\u005ccon_____.ttf
p3318
aVC:\u005cWindows\u005cFonts\u005cmoolbor.ttf
p3319
aVC:\u005cWindows\u005cFonts\u005cPLANETBE.TTF
p3320
aVC:\u005cWindows\u005cFonts\u005cARIALUNI.TTF
p3321
aVc:\u005cwindows\u005cfonts\u005crod.ttf
p3322
aVc:\u005cwindows\u005cfonts\u005ccordiaz.ttf
p3323
aVC:\u005cWindows\u005cFonts\u005cariali.ttf
p3324
aVc:\u005cwindows\u005cfonts\u005cseguisym.ttf
p3325
aVc:\u005cwindows\u005cfonts\u005ccandaraz.ttf
p3326
aVC:\u005cWindows\u005cFonts\u005cebrimabd.ttf
p3327
aVc:\u005cwindows\u005cfonts\u005cesstix12.ttf
p3328
aVC:\u005cWindows\u005cFonts\u005cCREDITVA.TTF
p3329
aVC:\u005cWindows\u005cFonts\u005cbiondi light.ttf
p3330
aVc:\u005cwindows\u005cfonts\u005ccambriaz.ttf
p3331
aVC:\u005cWindows\u005cFonts\u005cWICKCNBI.TTF
p3332
aVC:\u005cWindows\u005cFonts\u005cbrowaz.ttf
p3333
aVc:\u005cwindows\u005cfonts\u005cangsau.ttf
p3334
aVC:\u005cWindows\u005cFonts\u005cKhmerUIb.ttf
p3335
aVc:\u005cwindows\u005cfonts\u005cgeorgiab.ttf
p3336
aVc:\u005cwindows\u005cfonts\u005cthbi____.ttf
p3337
aVC:\u005cWindows\u005cFonts\u005csimfang.ttf
p3338
aVc:\u005cwindows\u005cfonts\u005cthr_____.ttf
p3339
aVc:\u005cwindows\u005cfonts\u005cangsaub.ttf
p3340
aVC:\u005cWindows\u005cFonts\u005cconstan.ttf
p3341
aVC:\u005cWindows\u005cFonts\u005ceuextrab.ttf
p3342
aVC:\u005cWindows\u005cFonts\u005csimpfxo.ttf
p3343
aVC:\u005cWindows\u005cFonts\u005cREFSPCL.TTF
p3344
aVC:\u005cWindows\u005cFonts\u005cDejaVuSerifCondensed.ttf
p3345
aVc:\u005cwindows\u005cfonts\u005cteen____.ttf
p3346
aVC:\u005cWindows\u005cFonts\u005cupcebi.ttf
p3347
aVC:\u005cWindows\u005cFonts\u005ckokilab.ttf
p3348
aVC:\u005cWindows\u005cFonts\u005cpala.ttf
p3349
aVc:\u005cwindows\u005cfonts\u005csegoeuib.ttf
p3350
aVc:\u005cwindows\u005cfonts\u005cgadugib.ttf
p3351
aVC:\u005cWindows\u005cFonts\u005cKREDIT1.TTF
p3352
aVC:\u005cWindows\u005cFonts\u005cDejaVuSerif-Italic.ttf
p3353
aVC:\u005cWindows\u005cFonts\u005cOUTLOOK.TTF
p3354
aVc:\u005cwindows\u005cfonts\u005csegoeuil.ttf
p3355
aVC:\u005cWindows\u005cFonts\u005cupcfi.ttf
p3356
aVc:\u005cwindows\u005cfonts\u005carimo-italic.ttf
p3357
aVc:\u005cwindows\u005cfonts\u005cminynb__.ttf
p3358
aVC:\u005cWindows\u005cFonts\u005cdavid.ttf
p3359
aVC:\u005cWindows\u005cFonts\u005crod.ttf
p3360
aVc:\u005cwindows\u005cfonts\u005ceucsymb.ttf
p3361
aVc:\u005cwindows\u005cfonts\u005carimo-bold.ttf
p3362
aVc:\u005cwindows\u005cfonts\u005citckrist.ttf
p3363
aVC:\u005cWindows\u005cFonts\u005ctrebucit.ttf
p3364
aVc:\u005cwindows\u005cfonts\u005ctungab.ttf
p3365
aVc:\u005cwindows\u005cfonts\u005cdejavusans-extralight.ttf
p3366
aVC:\u005cWindows\u005cFonts\u005cligurino bold.ttf
p3367
aVC:\u005cWindows\u005cFonts\u005clucon.ttf
p3368
aVc:\u005cwindows\u005cfonts\u005cebrima.ttf
p3369
aVC:\u005cWindows\u005cFonts\u005ceumat2.ttf
p3370
aVC:\u005cWindows\u005cFonts\u005cArimo-Regular.ttf
p3371
aVc:\u005cwindows\u005cfonts\u005cbradhitc.ttf
p3372
aVc:\u005cwindows\u005cfonts\u005cesstix15.ttf
p3373
aVC:\u005cWindows\u005cFonts\u005cCENTURY.TTF
p3374
aVC:\u005cWindows\u005cFonts\u005cgeorgiab.ttf
p3375
aVC:\u005cWindows\u005cFonts\u005cvijaya.ttf
p3376
aVc:\u005cwindows\u005cfonts\u005ctrado.ttf
p3377
aVc:\u005cwindows\u005cfonts\u005cangsai.ttf
p3378
aVC:\u005cWindows\u005cFonts\u005cMINYNBI_.TTF
p3379
aVC:\u005cWindows\u005cFonts\u005carabtype.ttf
p3380
aVC:\u005cWindows\u005cFonts\u005cvrinda.ttf
p3381
aVC:\u005cWindows\u005cFonts\u005cARIALNB.TTF
p3382
aVc:\u005cwindows\u005cfonts\u005cmajalla.ttf
p3383
aVC:\u005cWindows\u005cFonts\u005cGADUGI.TTF
p3384
aVc:\u005cwindows\u005cfonts\u005craavi.ttf
p3385
aVc:\u005cwindows\u005cfonts\u005cbssym7.ttf
p3386
aVc:\u005cwindows\u005cfonts\u005ceumat1b.ttf
p3387
aVc:\u005cwindows\u005cfonts\u005ctunga.ttf
p3388
aVC:\u005cWindows\u005cFonts\u005cCOO_____.ttf
p3389
aVc:\u005cwindows\u005cfonts\u005cupcibi.ttf
p3390
aVC:\u005cWindows\u005cFonts\u005cESSTIX16.TTF
p3391
aVC:\u005cWindows\u005cFonts\u005csegoescb.ttf
p3392
aVc:\u005cwindows\u005cfonts\u005cvrinda.ttf
p3393
aVc:\u005cwindows\u005cfonts\u005ceufrakb.ttf
p3394
aVc:\u005cwindows\u005cfonts\u005cverdana.ttf
p3395
aVC:\u005cWindows\u005cFonts\u005cCandara.ttf
p3396
aVc:\u005cwindows\u005cfonts\u005clvnm.ttf
p3397
aVc:\u005cwindows\u005cfonts\u005cwickcnb_.ttf
p3398
aVC:\u005cWindows\u005cFonts\u005cNEUROPOL.TTF
p3399
aVC:\u005cWindows\u005cFonts\u005ccalibri.ttf
p3400
aVc:\u005cwindows\u005cfonts\u005clhandw.ttf
p3401
aVC:\u005cWindows\u005cFonts\u005cESSTIX13.TTF
p3402
aVC:\u005cWindows\u005cFonts\u005cPRISTINA.TTF
p3403
aVc:\u005cwindows\u005cfonts\u005cdejavusanscondensed.ttf
p3404
aVC:\u005cWindows\u005cFonts\u005cupckb.ttf
p3405
aVC:\u005cWindows\u005cFonts\u005ccordiaub.ttf
p3406
aVc:\u005cwindows\u005cfonts\u005cupcki.ttf
p3407
aVC:\u005cWindows\u005cFonts\u005cGenBasBI.ttf
p3408
aVc:\u005cwindows\u005cfonts\u005ctandelle italic.ttf
p3409
aVC:\u005cWindows\u005cFonts\u005cangsaz.ttf
p3410
aVC:\u005cWindows\u005cFonts\u005cleelawad.ttf
p3411
aVc:\u005cwindows\u005cfonts\u005cplantc.ttf
p3412
aVC:\u005cWindows\u005cFonts\u005cESSTIX1_.TTF
p3413
aVC:\u005cWindows\u005cFonts\u005ctaile.ttf
p3414
aVC:\u005cWindows\u005cFonts\u005cseguisym.ttf
p3415
aVc:\u005cwindows\u005cfonts\u005cconstani.ttf
p3416
aVC:\u005cWindows\u005cFonts\u005cTiger.ttf
p3417
aVc:\u005cwindows\u005cfonts\u005cesstix2_.ttf
p3418
aVc:\u005cwindows\u005cfonts\u005cshruti.ttf
p3419
aVC:\u005cWindows\u005cFonts\u005cFREESCPT.TTF
p3420
aVC:\u005cWindows\u005cFonts\u005clathab.ttf
p3421
aVc:\u005cwindows\u005cfonts\u005cgabriola.ttf
p3422
aVC:\u005cWindows\u005cFonts\u005cCOB_____.ttf
p3423
aVC:\u005cWindows\u005cFonts\u005cupcdl.ttf
p3424
aVc:\u005cwindows\u005cfonts\u005cpalabi.ttf
p3425
aVC:\u005cWindows\u005cFonts\u005ccordiaui.ttf
p3426
aVC:\u005cWindows\u005cFonts\u005cphagspa.ttf
p3427
aVc:\u005cwindows\u005cfonts\u005cgenbasb.ttf
p3428
aVc:\u005cwindows\u005cfonts\u005cbrowa.ttf
p3429
aVC:\u005cWindows\u005cFonts\u005cconsolaz.ttf
p3430
aVC:\u005cWindows\u005cFonts\u005cupcei.ttf
p3431
aVc:\u005cwindows\u005cfonts\u005cgenbkbasb.ttf
p3432
aVc:\u005cwindows\u005cfonts\u005clathab.ttf
p3433
aVC:\u005cWindows\u005cFonts\u005ceumat2b.ttf
p3434
aVc:\u005cwindows\u005cfonts\u005cutsaahbi.ttf
p3435
aVC:\u005cWindows\u005cFonts\u005cDejaVuSansMono-BoldOblique.ttf
p3436
aVC:\u005cWindows\u005cFonts\u005cDejaVuSansCondensed-Bold.ttf
p3437
aVC:\u005cWindows\u005cFonts\u005cGOTHICI.TTF
p3438
aVC:\u005cWindows\u005cFonts\u005cTHB_____.ttf
p3439
aVc:\u005cwindows\u005cfonts\u005csimfang.ttf
p3440
aVc:\u005cwindows\u005cfonts\u005cmvboli.ttf
p3441
aVC:\u005cWindows\u005cFonts\u005ccordiau.ttf
p3442
aVC:\u005cWindows\u005cFonts\u005cupcki.ttf
p3443
aVc:\u005cwindows\u005cfonts\u005cbluehigd.ttf
p3444
aVC:\u005cWindows\u005cFonts\u005cangsaui.ttf
p3445
aVc:\u005cwindows\u005cfonts\u005clvnmbd.ttf
p3446
aVC:\u005cWindows\u005cFonts\u005cKhmerUI.ttf
p3447
aVC:\u005cWindows\u005cFonts\u005cBOOKOSBI.TTF
p3448
aVc:\u005cwindows\u005cfonts\u005cdejavusansmono-oblique.ttf
p3449
aVC:\u005cWindows\u005cFonts\u005cplantc.ttf
p3450
aVc:\u005cwindows\u005cfonts\u005ctandelle bolditalic.ttf
p3451
aVc:\u005cwindows\u005cfonts\u005ckartika.ttf
p3452
aVc:\u005cwindows\u005cfonts\u005cdokchamp.ttf
p3453
aVC:\u005cWindows\u005cFonts\u005ceucsymb.ttf
p3454
aVc:\u005cwindows\u005cfonts\u005cphagspab.ttf
p3455
aVC:\u005cWindows\u005cFonts\u005cESSTIX8_.TTF
p3456
aVc:\u005cwindows\u005cfonts\u005cntailub.ttf
p3457
aVc:\u005cwindows\u005cfonts\u005cgishabd.ttf
p3458
aVC:\u005cWindows\u005cFonts\u005cupcli.ttf
p3459
aVC:\u005cWindows\u005cFonts\u005ceuclid.ttf
p3460
aVc:\u005cwindows\u005cfonts\u005ciskpotab.ttf
p3461
asS'_FontManager__default_weight'
p3462
g13
sS'_version'
p3463
I101
sS'ttf_lookup_cache'
p3464
(dp3465
sS'default_size'
p3466
NsS'defaultFont'
p3467
(dp3468
g2564
S'C:\\PROGRA~1\\QGISBR~1\\apps\\Python27\\lib\\site-packages\\matplotlib-1.3.1-py2.7-win-amd64.egg\\matplotlib\\mpl-data\\fonts\\afm\\pcrb8a.afm'
p3469
sg2566
g2600
ssS'afmfiles'
p3470
(lp3471
g3469
aS'C:\\PROGRA~1\\QGISBR~1\\apps\\Python27\\lib\\site-packages\\matplotlib-1.3.1-py2.7-win-amd64.egg\\matplotlib\\mpl-data\\fonts\\pdfcorefonts\\Helvetica-BoldOblique.afm'
p3472
aS'C:\\PROGRA~1\\QGISBR~1\\apps\\Python27\\lib\\site-packages\\matplotlib-1.3.1-py2.7-win-amd64.egg\\matplotlib\\mpl-data\\fonts\\afm\\cmsy10.afm'
p3473
aS'C:\\PROGRA~1\\QGISBR~1\\apps\\Python27\\lib\\site-packages\\matplotlib-1.3.1-py2.7-win-amd64.egg\\matplotlib\\mpl-data\\fonts\\pdfcorefonts\\Courier.afm'
p3474
aS'C:\\PROGRA~1\\QGISBR~1\\apps\\Python27\\lib\\site-packages\\matplotlib-1.3.1-py2.7-win-amd64.egg\\matplotlib\\mpl-data\\fonts\\afm\\phvbo8a.afm'
p3475
aS'C:\\PROGRA~1\\QGISBR~1\\apps\\Python27\\lib\\site-packages\\matplotlib-1.3.1-py2.7-win-amd64.egg\\matplotlib\\mpl-data\\fonts\\pdfcorefonts\\Helvetica.afm'
p3476
aS'C:\\PROGRA~1\\QGISBR~1\\apps\\Python27\\lib\\site-packages\\matplotlib-1.3.1-py2.7-win-amd64.egg\\matplotlib\\mpl-data\\fonts\\afm\\ptmr8a.afm'
p3477
aS'C:\\PROGRA~1\\QGISBR~1\\apps\\Python27\\lib\\site-packages\\matplotlib-1.3.1-py2.7-win-amd64.egg\\matplotlib\\mpl-data\\fonts\\pdfcorefonts\\Times-Roman.afm'
p3478
aS'C:\\PROGRA~1\\QGISBR~1\\apps\\Python27\\lib\\site-packages\\matplotlib-1.3.1-py2.7-win-amd64.egg\\matplotlib\\mpl-data\\fonts\\afm\\phvlo8a.afm'
p3479
aS'C:\\PROGRA~1\\QGISBR~1\\apps\\Python27\\lib\\site-packages\\matplotlib-1.3.1-py2.7-win-amd64.egg\\matplotlib\\mpl-data\\fonts\\afm\\pcrr8a.afm'
p3480
aS'C:\\PROGRA~1\\QGISBR~1\\apps\\Python27\\lib\\site-packages\\matplotlib-1.3.1-py2.7-win-amd64.egg\\matplotlib\\mpl-data\\fonts\\afm\\phvb8a.afm'
p3481
aS'C:\\PROGRA~1\\QGISBR~1\\apps\\Python27\\lib\\site-packages\\matplotlib-1.3.1-py2.7-win-amd64.egg\\matplotlib\\mpl-data\\fonts\\afm\\phvr8an.afm'
p3482
aS'C:\\PROGRA~1\\QGISBR~1\\apps\\Python27\\lib\\site-packages\\matplotlib-1.3.1-py2.7-win-amd64.egg\\matplotlib\\mpl-data\\fonts\\pdfcorefonts\\Courier-BoldOblique.afm'
p3483
aS'C:\\PROGRA~1\\QGISBR~1\\apps\\Python27\\lib\\site-packages\\matplotlib-1.3.1-py2.7-win-amd64.egg\\matplotlib\\mpl-data\\fonts\\afm\\cmmi10.afm'
p3484
aS'C:\\PROGRA~1\\QGISBR~1\\apps\\Python27\\lib\\site-packages\\matplotlib-1.3.1-py2.7-win-amd64.egg\\matplotlib\\mpl-data\\fonts\\afm\\pncbi8a.afm'
p3485
aS'C:\\PROGRA~1\\QGISBR~1\\apps\\Python27\\lib\\site-packages\\matplotlib-1.3.1-py2.7-win-amd64.egg\\matplotlib\\mpl-data\\fonts\\afm\\pncr8a.afm'
p3486
aS'C:\\PROGRA~1\\QGISBR~1\\apps\\Python27\\lib\\site-packages\\matplotlib-1.3.1-py2.7-win-amd64.egg\\matplotlib\\mpl-data\\fonts\\afm\\pagd8a.afm'
p3487
aS'C:\\PROGRA~1\\QGISBR~1\\apps\\Python27\\lib\\site-packages\\matplotlib-1.3.1-py2.7-win-amd64.egg\\matplotlib\\mpl-data\\fonts\\pdfcorefonts\\Helvetica-Oblique.afm'
p3488
aS'C:\\PROGRA~1\\QGISBR~1\\apps\\Python27\\lib\\site-packages\\matplotlib-1.3.1-py2.7-win-amd64.egg\\matplotlib\\mpl-data\\fonts\\afm\\phvr8a.afm'
p3489
aS'C:\\PROGRA~1\\QGISBR~1\\apps\\Python27\\lib\\site-packages\\matplotlib-1.3.1-py2.7-win-amd64.egg\\matplotlib\\mpl-data\\fonts\\afm\\ptmb8a.afm'
p3490
aS'C:\\PROGRA~1\\QGISBR~1\\apps\\Python27\\lib\\site-packages\\matplotlib-1.3.1-py2.7-win-amd64.egg\\matplotlib\\mpl-data\\fonts\\afm\\phvb8an.afm'
p3491
aS'C:\\PROGRA~1\\QGISBR~1\\apps\\Python27\\lib\\site-packages\\matplotlib-1.3.1-py2.7-win-amd64.egg\\matplotlib\\mpl-data\\fonts\\pdfcorefonts\\Times-Bold.afm'
p3492
aS'C:\\PROGRA~1\\QGISBR~1\\apps\\Python27\\lib\\site-packages\\matplotlib-1.3.1-py2.7-win-amd64.egg\\matplotlib\\mpl-data\\fonts\\afm\\phvbo8an.afm'
p3493
aS'C:\\PROGRA~1\\QGISBR~1\\apps\\Python27\\lib\\site-packages\\matplotlib-1.3.1-py2.7-win-amd64.egg\\matplotlib\\mpl-data\\fonts\\afm\\cmr10.afm'
p3494
aS'C:\\PROGRA~1\\QGISBR~1\\apps\\Python27\\lib\\site-packages\\matplotlib-1.3.1-py2.7-win-amd64.egg\\matplotlib\\mpl-data\\fonts\\afm\\phvl8a.afm'
p3495
aS'C:\\PROGRA~1\\QGISBR~1\\apps\\Python27\\lib\\site-packages\\matplotlib-1.3.1-py2.7-win-amd64.egg\\matplotlib\\mpl-data\\fonts\\afm\\putr8a.afm'
p3496
aS'C:\\PROGRA~1\\QGISBR~1\\apps\\Python27\\lib\\site-packages\\matplotlib-1.3.1-py2.7-win-amd64.egg\\matplotlib\\mpl-data\\fonts\\afm\\phvro8a.afm'
p3497
aS'C:\\PROGRA~1\\QGISBR~1\\apps\\Python27\\lib\\site-packages\\matplotlib-1.3.1-py2.7-win-amd64.egg\\matplotlib\\mpl-data\\fonts\\pdfcorefonts\\Times-BoldItalic.afm'
p3498
aS'C:\\PROGRA~1\\QGISBR~1\\apps\\Python27\\lib\\site-packages\\matplotlib-1.3.1-py2.7-win-amd64.egg\\matplotlib\\mpl-data\\fonts\\afm\\pplb8a.afm'
p3499
aS'C:\\PROGRA~1\\QGISBR~1\\apps\\Python27\\lib\\site-packages\\matplotlib-1.3.1-py2.7-win-amd64.egg\\matplotlib\\mpl-data\\fonts\\afm\\pplbi8a.afm'
p3500
aS'C:\\PROGRA~1\\QGISBR~1\\apps\\Python27\\lib\\site-packages\\matplotlib-1.3.1-py2.7-win-amd64.egg\\matplotlib\\mpl-data\\fonts\\afm\\cmex10.afm'
p3501
aS'C:\\PROGRA~1\\QGISBR~1\\apps\\Python27\\lib\\site-packages\\matplotlib-1.3.1-py2.7-win-amd64.egg\\matplotlib\\mpl-data\\fonts\\afm\\cmtt10.afm'
p3502
aS'C:\\PROGRA~1\\QGISBR~1\\apps\\Python27\\lib\\site-packages\\matplotlib-1.3.1-py2.7-win-amd64.egg\\matplotlib\\mpl-data\\fonts\\afm\\pncb8a.afm'
p3503
aS'C:\\PROGRA~1\\QGISBR~1\\apps\\Python27\\lib\\site-packages\\matplotlib-1.3.1-py2.7-win-amd64.egg\\matplotlib\\mpl-data\\fonts\\pdfcorefonts\\Helvetica-Bold.afm'
p3504
aS'C:\\PROGRA~1\\QGISBR~1\\apps\\Python27\\lib\\site-packages\\matplotlib-1.3.1-py2.7-win-amd64.egg\\matplotlib\\mpl-data\\fonts\\afm\\pbkdi8a.afm'
p3505
aS'C:\\PROGRA~1\\QGISBR~1\\apps\\Python27\\lib\\site-packages\\matplotlib-1.3.1-py2.7-win-amd64.egg\\matplotlib\\mpl-data\\fonts\\afm\\putb8a.afm'
p3506
aS'C:\\PROGRA~1\\QGISBR~1\\apps\\Python27\\lib\\site-packages\\matplotlib-1.3.1-py2.7-win-amd64.egg\\matplotlib\\mpl-data\\fonts\\afm\\pzcmi8a.afm'
p3507
aS'C:\\PROGRA~1\\QGISBR~1\\apps\\Python27\\lib\\site-packages\\matplotlib-1.3.1-py2.7-win-amd64.egg\\matplotlib\\mpl-data\\fonts\\afm\\pplri8a.afm'
p3508
aS'C:\\PROGRA~1\\QGISBR~1\\apps\\Python27\\lib\\site-packages\\matplotlib-1.3.1-py2.7-win-amd64.egg\\matplotlib\\mpl-data\\fonts\\afm\\psyr.afm'
p3509
aS'C:\\PROGRA~1\\QGISBR~1\\apps\\Python27\\lib\\site-packages\\matplotlib-1.3.1-py2.7-win-amd64.egg\\matplotlib\\mpl-data\\fonts\\afm\\pzdr.afm'
p3510
aS'C:\\PROGRA~1\\QGISBR~1\\apps\\Python27\\lib\\site-packages\\matplotlib-1.3.1-py2.7-win-amd64.egg\\matplotlib\\mpl-data\\fonts\\afm\\pagko8a.afm'
p3511
aS'C:\\PROGRA~1\\QGISBR~1\\apps\\Python27\\lib\\site-packages\\matplotlib-1.3.1-py2.7-win-amd64.egg\\matplotlib\\mpl-data\\fonts\\afm\\ptmbi8a.afm'
p3512
aS'C:\\PROGRA~1\\QGISBR~1\\apps\\Python27\\lib\\site-packages\\matplotlib-1.3.1-py2.7-win-amd64.egg\\matplotlib\\mpl-data\\fonts\\pdfcorefonts\\Symbol.afm'
p3513
aS'C:\\PROGRA~1\\QGISBR~1\\apps\\Python27\\lib\\site-packages\\matplotlib-1.3.1-py2.7-win-amd64.egg\\matplotlib\\mpl-data\\fonts\\afm\\pcrro8a.afm'
p3514
aS'C:\\PROGRA~1\\QGISBR~1\\apps\\Python27\\lib\\site-packages\\matplotlib-1.3.1-py2.7-win-amd64.egg\\matplotlib\\mpl-data\\fonts\\afm\\pbkl8a.afm'
p3515
aS'C:\\PROGRA~1\\QGISBR~1\\apps\\Python27\\lib\\site-packages\\matplotlib-1.3.1-py2.7-win-amd64.egg\\matplotlib\\mpl-data\\fonts\\afm\\pbkd8a.afm'
p3516
aS'C:\\PROGRA~1\\QGISBR~1\\apps\\Python27\\lib\\site-packages\\matplotlib-1.3.1-py2.7-win-amd64.egg\\matplotlib\\mpl-data\\fonts\\afm\\putbi8a.afm'
p3517
aS'C:\\PROGRA~1\\QGISBR~1\\apps\\Python27\\lib\\site-packages\\matplotlib-1.3.1-py2.7-win-amd64.egg\\matplotlib\\mpl-data\\fonts\\afm\\pagdo8a.afm'
p3518
aS'C:\\PROGRA~1\\QGISBR~1\\apps\\Python27\\lib\\site-packages\\matplotlib-1.3.1-py2.7-win-amd64.egg\\matplotlib\\mpl-data\\fonts\\pdfcorefonts\\Courier-Oblique.afm'
p3519
aS'C:\\PROGRA~1\\QGISBR~1\\apps\\Python27\\lib\\site-packages\\matplotlib-1.3.1-py2.7-win-amd64.egg\\matplotlib\\mpl-data\\fonts\\afm\\pplr8a.afm'
p3520
aS'C:\\PROGRA~1\\QGISBR~1\\apps\\Python27\\lib\\site-packages\\matplotlib-1.3.1-py2.7-win-amd64.egg\\matplotlib\\mpl-data\\fonts\\afm\\pagk8a.afm'
p3521
aS'C:\\PROGRA~1\\QGISBR~1\\apps\\Python27\\lib\\site-packages\\matplotlib-1.3.1-py2.7-win-amd64.egg\\matplotlib\\mpl-data\\fonts\\afm\\pcrbo8a.afm'
p3522
aS'C:\\PROGRA~1\\QGISBR~1\\apps\\Python27\\lib\\site-packages\\matplotlib-1.3.1-py2.7-win-amd64.egg\\matplotlib\\mpl-data\\fonts\\pdfcorefonts\\ZapfDingbats.afm'
p3523
aS'C:\\PROGRA~1\\QGISBR~1\\apps\\Python27\\lib\\site-packages\\matplotlib-1.3.1-py2.7-win-amd64.egg\\matplotlib\\mpl-data\\fonts\\pdfcorefonts\\Courier-Bold.afm'
p3524
aS'C:\\PROGRA~1\\QGISBR~1\\apps\\Python27\\lib\\site-packages\\matplotlib-1.3.1-py2.7-win-amd64.egg\\matplotlib\\mpl-data\\fonts\\afm\\putri8a.afm'
p3525
aS'C:\\PROGRA~1\\QGISBR~1\\apps\\Python27\\lib\\site-packages\\matplotlib-1.3.1-py2.7-win-amd64.egg\\matplotlib\\mpl-data\\fonts\\pdfcorefonts\\Times-Italic.afm'
p3526
aS'C:\\PROGRA~1\\QGISBR~1\\apps\\Python27\\lib\\site-packages\\matplotlib-1.3.1-py2.7-win-amd64.egg\\matplotlib\\mpl-data\\fonts\\afm\\ptmri8a.afm'
p3527
aS'C:\\PROGRA~1\\QGISBR~1\\apps\\Python27\\lib\\site-packages\\matplotlib-1.3.1-py2.7-win-amd64.egg\\matplotlib\\mpl-data\\fonts\\afm\\pbkli8a.afm'
p3528
aS'C:\\PROGRA~1\\QGISBR~1\\apps\\Python27\\lib\\site-packages\\matplotlib-1.3.1-py2.7-win-amd64.egg\\matplotlib\\mpl-data\\fonts\\afm\\pncri8a.afm'
p3529
aS'C:\\PROGRA~1\\QGISBR~1\\apps\\Python27\\lib\\site-packages\\matplotlib-1.3.1-py2.7-win-amd64.egg\\matplotlib\\mpl-data\\fonts\\afm\\phvro8an.afm'
p3530
asS'afmlist'
p3531
(lp3532
g7
(g8
g9
NtRp3533
(dp3534
g12
g13
sg14
S'Courier'
p3535
sg16
I700
sg17
g13
sg18
g13
sg19
g3469
sg21
g22
sbag7
(g8
g9
NtRp3536
(dp3537
g12
g50
sg14
S'Helvetica'
p3538
sg16
I700
sg17
g13
sg18
g13
sg19
g3472
sg21
g22
sbag7
(g8
g9
NtRp3539
(dp3540
g12
g50
sg14
S'Computer Modern'
p3541
sg16
I500
sg17
g13
sg18
g13
sg19
g3473
sg21
g22
sbag7
(g8
g9
NtRp3542
(dp3543
g12
g13
sg14
S'Courier'
p3544
sg16
I500
sg17
g13
sg18
g13
sg19
g3474
sg21
g22
sbag7
(g8
g9
NtRp3545
(dp3546
g12
g50
sg14
S'Helvetica'
p3547
sg16
I700
sg17
g13
sg18
g13
sg19
g3475
sg21
g22
sbag7
(g8
g9
NtRp3548
(dp3549
g12
g13
sg14
S'Helvetica'
p3550
sg16
I500
sg17
g13
sg18
g13
sg19
g3476
sg21
g22
sbag7
(g8
g9
NtRp3551
(dp3552
g12
g13
sg14
S'Times'
p3553
sg16
I500
sg17
g13
sg18
g13
sg19
g3477
sg21
g22
sbag7
(g8
g9
NtRp3554
(dp3555
g12
g13
sg14
S'Times'
p3556
sg16
I500
sg17
g13
sg18
g13
sg19
g3478
sg21
g22
sbag7
(g8
g9
NtRp3557
(dp3558
g12
g50
sg14
S'Helvetica'
p3559
sg16
I200
sg17
g13
sg18
g13
sg19
g3479
sg21
g22
sbag7
(g8
g9
NtRp3560
(dp3561
g12
g13
sg14
S'Courier'
p3562
sg16
I500
sg17
g13
sg18
g13
sg19
g3480
sg21
g22
sbag7
(g8
g9
NtRp3563
(dp3564
g12
g13
sg14
S'Helvetica'
p3565
sg16
I700
sg17
g13
sg18
g13
sg19
g3481
sg21
g22
sbag7
(g8
g9
NtRp3566
(dp3567
g12
g13
sg14
S'Helvetica'
p3568
sg16
I500
sg17
g288
sg18
g13
sg19
g3482
sg21
g22
sbag7
(g8
g9
NtRp3569
(dp3570
g12
g50
sg14
S'Courier'
p3571
sg16
I700
sg17
g13
sg18
g13
sg19
g3483
sg21
g22
sbag7
(g8
g9
NtRp3572
(dp3573
g12
g50
sg14
S'Computer Modern'
p3574
sg16
I500
sg17
g13
sg18
g13
sg19
g3484
sg21
g22
sbag7
(g8
g9
NtRp3575
(dp3576
g12
g50
sg14
S'New Century Schoolbook'
p3577
sg16
I700
sg17
g13
sg18
g13
sg19
g3485
sg21
g22
sbag7
(g8
g9
NtRp3578
(dp3579
g12
g13
sg14
S'New Century Schoolbook'
p3580
sg16
I500
sg17
g13
sg18
g13
sg19
g3486
sg21
g22
sbag7
(g8
g9
NtRp3581
(dp3582
g12
g13
sg14
S'ITC Avant Garde Gothic'
p3583
sg16
I600
sg17
g13
sg18
g13
sg19
g3487
sg21
g22
sbag7
(g8
g9
NtRp3584
(dp3585
g12
g50
sg14
S'Helvetica'
p3586
sg16
I500
sg17
g13
sg18
g13
sg19
g3488
sg21
g22
sbag7
(g8
g9
NtRp3587
(dp3588
g12
g13
sg14
S'Helvetica'
p3589
sg16
I500
sg17
g13
sg18
g13
sg19
g3489
sg21
g22
sbag7
(g8
g9
NtRp3590
(dp3591
g12
g13
sg14
S'Times'
p3592
sg16
I700
sg17
g13
sg18
g13
sg19
g3490
sg21
g22
sbag7
(g8
g9
NtRp3593
(dp3594
g12
g13
sg14
S'Helvetica'
p3595
sg16
I700
sg17
g288
sg18
g13
sg19
g3491
sg21
g22
sbag7
(g8
g9
NtRp3596
(dp3597
g12
g13
sg14
S'Times'
p3598
sg16
I700
sg17
g13
sg18
g13
sg19
g3492
sg21
g22
sbag7
(g8
g9
NtRp3599
(dp3600
g12
g50
sg14
S'Helvetica'
p3601
sg16
I700
sg17
g288
sg18
g13
sg19
g3493
sg21
g22
sbag7
(g8
g9
NtRp3602
(dp3603
g12
g13
sg14
S'Computer Modern'
p3604
sg16
I500
sg17
g13
sg18
g13
sg19
g3494
sg21
g22
sbag7
(g8
g9
NtRp3605
(dp3606
g12
g13
sg14
S'Helvetica'
p3607
sg16
I200
sg17
g13
sg18
g13
sg19
g3495
sg21
g22
sbag7
(g8
g9
NtRp3608
(dp3609
g12
g13
sg14
S'Utopia'
p3610
sg16
I400
sg17
g13
sg18
g13
sg19
g3496
sg21
g22
sbag7
(g8
g9
NtRp3611
(dp3612
g12
g50
sg14
S'Helvetica'
p3613
sg16
I500
sg17
g13
sg18
g13
sg19
g3497
sg21
g22
sbag7
(g8
g9
NtRp3614
(dp3615
g12
g50
sg14
S'Times'
p3616
sg16
I700
sg17
g13
sg18
g13
sg19
g3498
sg21
g22
sbag7
(g8
g9
NtRp3617
(dp3618
g12
g13
sg14
S'Palatino'
p3619
sg16
I700
sg17
g13
sg18
g13
sg19
g3499
sg21
g22
sbag7
(g8
g9
NtRp3620
(dp3621
g12
g50
sg14
S'Palatino'
p3622
sg16
I700
sg17
g13
sg18
g13
sg19
g3500
sg21
g22
sbag7
(g8
g9
NtRp3623
(dp3624
g12
g13
sg14
S'Computer Modern'
p3625
sg16
I500
sg17
g13
sg18
g13
sg19
g3501
sg21
g22
sbag7
(g8
g9
NtRp3626
(dp3627
g12
g13
sg14
S'Computer Modern'
p3628
sg16
I500
sg17
g13
sg18
g13
sg19
g3502
sg21
g22
sbag7
(g8
g9
NtRp3629
(dp3630
g12
g13
sg14
S'New Century Schoolbook'
p3631
sg16
I700
sg17
g13
sg18
g13
sg19
g3503
sg21
g22
sbag7
(g8
g9
NtRp3632
(dp3633
g12
g13
sg14
S'Helvetica'
p3634
sg16
I700
sg17
g13
sg18
g13
sg19
g3504
sg21
g22
sbag7
(g8
g9
NtRp3635
(dp3636
g12
g50
sg14
S'ITC Bookman'
p3637
sg16
I600
sg17
g13
sg18
g13
sg19
g3505
sg21
g22
sbag7
(g8
g9
NtRp3638
(dp3639
g12
g13
sg14
S'Utopia'
p3640
sg16
I700
sg17
g13
sg18
g13
sg19
g3506
sg21
g22
sbag7
(g8
g9
NtRp3641
(dp3642
g12
g50
sg14
S'ITC Zapf Chancery'
p3643
sg16
I500
sg17
g13
sg18
g13
sg19
g3507
sg21
g22
sbag7
(g8
g9
NtRp3644
(dp3645
g12
g50
sg14
S'Palatino'
p3646
sg16
I500
sg17
g13
sg18
g13
sg19
g3508
sg21
g22
sbag7
(g8
g9
NtRp3647
(dp3648
g12
g13
sg14
S'Symbol'
p3649
sg16
I500
sg17
g13
sg18
g13
sg19
g3509
sg21
g22
sbag7
(g8
g9
NtRp3650
(dp3651
g12
g13
sg14
S'ITC Zapf Dingbats'
p3652
sg16
I500
sg17
g13
sg18
g13
sg19
g3510
sg21
g22
sbag7
(g8
g9
NtRp3653
(dp3654
g12
g50
sg14
S'ITC Avant Garde Gothic'
p3655
sg16
I400
sg17
g13
sg18
g13
sg19
g3511
sg21
g22
sbag7
(g8
g9
NtRp3656
(dp3657
g12
g50
sg14
S'Times'
p3658
sg16
I700
sg17
g13
sg18
g13
sg19
g3512
sg21
g22
sbag7
(g8
g9
NtRp3659
(dp3660
g12
g13
sg14
S'Symbol'
p3661
sg16
I500
sg17
g13
sg18
g13
sg19
g3513
sg21
g22
sbag7
(g8
g9
NtRp3662
(dp3663
g12
g50
sg14
S'Courier'
p3664
sg16
I500
sg17
g13
sg18
g13
sg19
g3514
sg21
g22
sbag7
(g8
g9
NtRp3665
(dp3666
g12
g13
sg14
S'ITC Bookman'
p3667
sg16
I200
sg17
g13
sg18
g13
sg19
g3515
sg21
g22
sbag7
(g8
g9
NtRp3668
(dp3669
g12
g13
sg14
S'ITC Bookman'
p3670
sg16
I600
sg17
g13
sg18
g13
sg19
g3516
sg21
g22
sbag7
(g8
g9
NtRp3671
(dp3672
g12
g50
sg14
S'Utopia'
p3673
sg16
I700
sg17
g13
sg18
g13
sg19
g3517
sg21
g22
sbag7
(g8
g9
NtRp3674
(dp3675
g12
g50
sg14
S'ITC Avant Garde Gothic'
p3676
sg16
I600
sg17
g13
sg18
g13
sg19
g3518
sg21
g22
sbag7
(g8
g9
NtRp3677
(dp3678
g12
g50
sg14
S'Courier'
p3679
sg16
I500
sg17
g13
sg18
g13
sg19
g3519
sg21
g22
sbag7
(g8
g9
NtRp3680
(dp3681
g12
g13
sg14
S'Palatino'
p3682
sg16
I500
sg17
g13
sg18
g13
sg19
g3520
sg21
g22
sbag7
(g8
g9
NtRp3683
(dp3684
g12
g13
sg14
S'ITC Avant Garde Gothic'
p3685
sg16
I400
sg17
g13
sg18
g13
sg19
g3521
sg21
g22
sbag7
(g8
g9
NtRp3686
(dp3687
g12
g50
sg14
S'Courier'
p3688
sg16
I700
sg17
g13
sg18
g13
sg19
g3522
sg21
g22
sbag7
(g8
g9
NtRp3689
(dp3690
g12
g13
sg14
S'ZapfDingbats'
p3691
sg16
I500
sg17
g13
sg18
g13
sg19
g3523
sg21
g22
sbag7
(g8
g9
NtRp3692
(dp3693
g12
g13
sg14
S'Courier'
p3694
sg16
I700
sg17
g13
sg18
g13
sg19
g3524
sg21
g22
sbag7
(g8
g9
NtRp3695
(dp3696
g12
g50
sg14
S'Utopia'
p3697
sg16
I400
sg17
g13
sg18
g13
sg19
g3525
sg21
g22
sbag7
(g8
g9
NtRp3698
(dp3699
g12
g50
sg14
S'Times'
p3700
sg16
I500
sg17
g13
sg18
g13
sg19
g3526
sg21
g22
sbag7
(g8
g9
NtRp3701
(dp3702
g12
g50
sg14
S'Times'
p3703
sg16
I500
sg17
g13
sg18
g13
sg19
g3527
sg21
g22
sbag7
(g8
g9
NtRp3704
(dp3705
g12
g50
sg14
S'ITC Bookman'
p3706
sg16
I200
sg17
g13
sg18
g13
sg19
g3528
sg21
g22
sbag7
(g8
g9
NtRp3707
(dp3708
g12
g50
sg14
S'New Century Schoolbook'
p3709
sg16
I500
sg17
g13
sg18
g13
sg19
g3529
sg21
g22
sbag7
(g8
g9
NtRp3710
(dp3711
g12
g50
sg14
S'Helvetica'
p3712
sg16
I500
sg17
g288
sg18
g13
sg19
g3530
sg21
g22
sbasb.